ARM GAS  C:\Users\SEBAST~3\AppData\Local\Temp\ccQGNYwU.s 			page 1


   1              		.syntax unified
   2              		.cpu cortex-m3
   3              		.fpu softvfp
   4              		.eabi_attribute 20, 1
   5              		.eabi_attribute 21, 1
   6              		.eabi_attribute 23, 3
   7              		.eabi_attribute 24, 1
   8              		.eabi_attribute 25, 1
   9              		.eabi_attribute 26, 1
  10              		.eabi_attribute 30, 6
  11              		.eabi_attribute 34, 1
  12              		.eabi_attribute 18, 4
  13              		.thumb
  14              		.syntax unified
  15              		.file	"cyfitter_cfg.c"
  16              		.text
  17              	.Ltext0:
  18              		.cfi_sections	.debug_frame
  19              		.section	.text.CYMEMZERO,"ax",%progbits
  20              		.align	2
  21              		.thumb
  22              		.thumb_func
  23              		.type	CYMEMZERO, %function
  24              	CYMEMZERO:
  25              	.LFB0:
  26              		.file 1 "Generated_Source\\PSoC5\\cyfitter_cfg.c"
   1:Generated_Source\PSoC5/cyfitter_cfg.c **** 
   2:Generated_Source\PSoC5/cyfitter_cfg.c **** /*******************************************************************************
   3:Generated_Source\PSoC5/cyfitter_cfg.c **** * File Name: cyfitter_cfg.c
   4:Generated_Source\PSoC5/cyfitter_cfg.c **** * 
   5:Generated_Source\PSoC5/cyfitter_cfg.c **** * PSoC Creator  4.2
   6:Generated_Source\PSoC5/cyfitter_cfg.c **** *
   7:Generated_Source\PSoC5/cyfitter_cfg.c **** * Description:
   8:Generated_Source\PSoC5/cyfitter_cfg.c **** * This file contains device initialization code.
   9:Generated_Source\PSoC5/cyfitter_cfg.c **** * Except for the user defined sections in CyClockStartupError(), this file should not be modified.
  10:Generated_Source\PSoC5/cyfitter_cfg.c **** * This file is automatically generated by PSoC Creator.
  11:Generated_Source\PSoC5/cyfitter_cfg.c **** *
  12:Generated_Source\PSoC5/cyfitter_cfg.c **** ********************************************************************************
  13:Generated_Source\PSoC5/cyfitter_cfg.c **** * Copyright (c) 2007-2018 Cypress Semiconductor.  All rights reserved.
  14:Generated_Source\PSoC5/cyfitter_cfg.c **** * You may use this file only in accordance with the license, terms, conditions, 
  15:Generated_Source\PSoC5/cyfitter_cfg.c **** * disclaimers, and limitations in the end user license agreement accompanying 
  16:Generated_Source\PSoC5/cyfitter_cfg.c **** * the software package with which this file was provided.
  17:Generated_Source\PSoC5/cyfitter_cfg.c **** ********************************************************************************/
  18:Generated_Source\PSoC5/cyfitter_cfg.c **** 
  19:Generated_Source\PSoC5/cyfitter_cfg.c **** #include <string.h>
  20:Generated_Source\PSoC5/cyfitter_cfg.c **** #include "cytypes.h"
  21:Generated_Source\PSoC5/cyfitter_cfg.c **** #include "cydevice_trm.h"
  22:Generated_Source\PSoC5/cyfitter_cfg.c **** #include "cyfitter.h"
  23:Generated_Source\PSoC5/cyfitter_cfg.c **** #include "CyLib.h"
  24:Generated_Source\PSoC5/cyfitter_cfg.c **** #include "cyfitter_cfg.h"
  25:Generated_Source\PSoC5/cyfitter_cfg.c **** #include "cyapicallbacks.h"
  26:Generated_Source\PSoC5/cyfitter_cfg.c **** 
  27:Generated_Source\PSoC5/cyfitter_cfg.c **** #define CY_NEED_CYCLOCKSTARTUPERROR 1
  28:Generated_Source\PSoC5/cyfitter_cfg.c **** 
  29:Generated_Source\PSoC5/cyfitter_cfg.c **** 
  30:Generated_Source\PSoC5/cyfitter_cfg.c **** #if defined(__GNUC__) || defined(__ARMCC_VERSION)
  31:Generated_Source\PSoC5/cyfitter_cfg.c ****     #define CYPACKED 
ARM GAS  C:\Users\SEBAST~3\AppData\Local\Temp\ccQGNYwU.s 			page 2


  32:Generated_Source\PSoC5/cyfitter_cfg.c ****     #define CYPACKED_ATTR __attribute__ ((packed))
  33:Generated_Source\PSoC5/cyfitter_cfg.c ****     #define CYALIGNED __attribute__ ((aligned))
  34:Generated_Source\PSoC5/cyfitter_cfg.c ****     #define CY_CFG_UNUSED __attribute__ ((unused))
  35:Generated_Source\PSoC5/cyfitter_cfg.c ****     #ifndef CY_CFG_SECTION
  36:Generated_Source\PSoC5/cyfitter_cfg.c ****         #define CY_CFG_SECTION __attribute__ ((section(".psocinit")))
  37:Generated_Source\PSoC5/cyfitter_cfg.c ****     #endif
  38:Generated_Source\PSoC5/cyfitter_cfg.c ****     
  39:Generated_Source\PSoC5/cyfitter_cfg.c ****     #if defined(__ARMCC_VERSION)
  40:Generated_Source\PSoC5/cyfitter_cfg.c ****         #define CY_CFG_MEMORY_BARRIER() __memory_changed()
  41:Generated_Source\PSoC5/cyfitter_cfg.c ****     #else
  42:Generated_Source\PSoC5/cyfitter_cfg.c ****         #define CY_CFG_MEMORY_BARRIER() __sync_synchronize()
  43:Generated_Source\PSoC5/cyfitter_cfg.c ****     #endif
  44:Generated_Source\PSoC5/cyfitter_cfg.c ****     
  45:Generated_Source\PSoC5/cyfitter_cfg.c **** #elif defined(__ICCARM__)
  46:Generated_Source\PSoC5/cyfitter_cfg.c ****     #include <intrinsics.h>
  47:Generated_Source\PSoC5/cyfitter_cfg.c **** 
  48:Generated_Source\PSoC5/cyfitter_cfg.c ****     #define CYPACKED __packed
  49:Generated_Source\PSoC5/cyfitter_cfg.c ****     #define CYPACKED_ATTR 
  50:Generated_Source\PSoC5/cyfitter_cfg.c ****     #define CYALIGNED _Pragma("data_alignment=4")
  51:Generated_Source\PSoC5/cyfitter_cfg.c ****     #define CY_CFG_UNUSED _Pragma("diag_suppress=Pe177")
  52:Generated_Source\PSoC5/cyfitter_cfg.c ****     #define CY_CFG_SECTION _Pragma("location=\".psocinit\"")
  53:Generated_Source\PSoC5/cyfitter_cfg.c ****     
  54:Generated_Source\PSoC5/cyfitter_cfg.c ****     #define CY_CFG_MEMORY_BARRIER() __DMB()
  55:Generated_Source\PSoC5/cyfitter_cfg.c ****     
  56:Generated_Source\PSoC5/cyfitter_cfg.c **** #else
  57:Generated_Source\PSoC5/cyfitter_cfg.c ****     #error Unsupported toolchain
  58:Generated_Source\PSoC5/cyfitter_cfg.c **** #endif
  59:Generated_Source\PSoC5/cyfitter_cfg.c **** 
  60:Generated_Source\PSoC5/cyfitter_cfg.c **** #ifndef CYCODE
  61:Generated_Source\PSoC5/cyfitter_cfg.c ****     #define CYCODE
  62:Generated_Source\PSoC5/cyfitter_cfg.c **** #endif
  63:Generated_Source\PSoC5/cyfitter_cfg.c **** #ifndef CYDATA
  64:Generated_Source\PSoC5/cyfitter_cfg.c ****     #define CYDATA
  65:Generated_Source\PSoC5/cyfitter_cfg.c **** #endif
  66:Generated_Source\PSoC5/cyfitter_cfg.c **** #ifndef CYFAR
  67:Generated_Source\PSoC5/cyfitter_cfg.c ****     #define CYFAR
  68:Generated_Source\PSoC5/cyfitter_cfg.c **** #endif
  69:Generated_Source\PSoC5/cyfitter_cfg.c **** #ifndef CYXDATA
  70:Generated_Source\PSoC5/cyfitter_cfg.c ****     #define CYXDATA
  71:Generated_Source\PSoC5/cyfitter_cfg.c **** #endif
  72:Generated_Source\PSoC5/cyfitter_cfg.c **** 
  73:Generated_Source\PSoC5/cyfitter_cfg.c **** 
  74:Generated_Source\PSoC5/cyfitter_cfg.c **** CY_CFG_UNUSED
  75:Generated_Source\PSoC5/cyfitter_cfg.c **** static void CYMEMZERO(void *s, size_t n);
  76:Generated_Source\PSoC5/cyfitter_cfg.c **** CY_CFG_UNUSED
  77:Generated_Source\PSoC5/cyfitter_cfg.c **** static void CYMEMZERO(void *s, size_t n)
  78:Generated_Source\PSoC5/cyfitter_cfg.c **** {
  27              		.loc 1 78 0
  28              		.cfi_startproc
  29              		@ args = 0, pretend = 0, frame = 8
  30              		@ frame_needed = 1, uses_anonymous_args = 0
  31 0000 80B5     		push	{r7, lr}
  32              		.cfi_def_cfa_offset 8
  33              		.cfi_offset 7, -8
  34              		.cfi_offset 14, -4
  35 0002 82B0     		sub	sp, sp, #8
  36              		.cfi_def_cfa_offset 16
ARM GAS  C:\Users\SEBAST~3\AppData\Local\Temp\ccQGNYwU.s 			page 3


  37 0004 00AF     		add	r7, sp, #0
  38              		.cfi_def_cfa_register 7
  39 0006 7860     		str	r0, [r7, #4]
  40 0008 3960     		str	r1, [r7]
  79:Generated_Source\PSoC5/cyfitter_cfg.c **** 	(void)memset(s, 0, n);
  41              		.loc 1 79 0
  42 000a 3A68     		ldr	r2, [r7]
  43 000c 0021     		movs	r1, #0
  44 000e 7868     		ldr	r0, [r7, #4]
  45 0010 FFF7FEFF 		bl	memset
  80:Generated_Source\PSoC5/cyfitter_cfg.c **** }
  46              		.loc 1 80 0
  47 0014 00BF     		nop
  48 0016 0837     		adds	r7, r7, #8
  49              		.cfi_def_cfa_offset 8
  50 0018 BD46     		mov	sp, r7
  51              		.cfi_def_cfa_register 13
  52              		@ sp needed
  53 001a 80BD     		pop	{r7, pc}
  54              		.cfi_endproc
  55              	.LFE0:
  56              		.size	CYMEMZERO, .-CYMEMZERO
  57              		.section	.text.CYCONFIGCPY,"ax",%progbits
  58              		.align	2
  59              		.thumb
  60              		.thumb_func
  61              		.type	CYCONFIGCPY, %function
  62              	CYCONFIGCPY:
  63              	.LFB1:
  81:Generated_Source\PSoC5/cyfitter_cfg.c **** CY_CFG_UNUSED
  82:Generated_Source\PSoC5/cyfitter_cfg.c **** static void CYCONFIGCPY(void *dest, const void *src, size_t n);
  83:Generated_Source\PSoC5/cyfitter_cfg.c **** CY_CFG_UNUSED
  84:Generated_Source\PSoC5/cyfitter_cfg.c **** static void CYCONFIGCPY(void *dest, const void *src, size_t n)
  85:Generated_Source\PSoC5/cyfitter_cfg.c **** {
  64              		.loc 1 85 0
  65              		.cfi_startproc
  66              		@ args = 0, pretend = 0, frame = 16
  67              		@ frame_needed = 1, uses_anonymous_args = 0
  68 0000 80B5     		push	{r7, lr}
  69              		.cfi_def_cfa_offset 8
  70              		.cfi_offset 7, -8
  71              		.cfi_offset 14, -4
  72 0002 84B0     		sub	sp, sp, #16
  73              		.cfi_def_cfa_offset 24
  74 0004 00AF     		add	r7, sp, #0
  75              		.cfi_def_cfa_register 7
  76 0006 F860     		str	r0, [r7, #12]
  77 0008 B960     		str	r1, [r7, #8]
  78 000a 7A60     		str	r2, [r7, #4]
  86:Generated_Source\PSoC5/cyfitter_cfg.c **** 	(void)memcpy(dest, src, n);
  79              		.loc 1 86 0
  80 000c 7A68     		ldr	r2, [r7, #4]
  81 000e B968     		ldr	r1, [r7, #8]
  82 0010 F868     		ldr	r0, [r7, #12]
  83 0012 FFF7FEFF 		bl	memcpy
  87:Generated_Source\PSoC5/cyfitter_cfg.c **** }
  84              		.loc 1 87 0
ARM GAS  C:\Users\SEBAST~3\AppData\Local\Temp\ccQGNYwU.s 			page 4


  85 0016 00BF     		nop
  86 0018 1037     		adds	r7, r7, #16
  87              		.cfi_def_cfa_offset 8
  88 001a BD46     		mov	sp, r7
  89              		.cfi_def_cfa_register 13
  90              		@ sp needed
  91 001c 80BD     		pop	{r7, pc}
  92              		.cfi_endproc
  93              	.LFE1:
  94              		.size	CYCONFIGCPY, .-CYCONFIGCPY
  95 001e 00BF     		.section	.text.CYCONFIGCPYCODE,"ax",%progbits
  96              		.align	2
  97              		.thumb
  98              		.thumb_func
  99              		.type	CYCONFIGCPYCODE, %function
 100              	CYCONFIGCPYCODE:
 101              	.LFB2:
  88:Generated_Source\PSoC5/cyfitter_cfg.c **** CY_CFG_UNUSED
  89:Generated_Source\PSoC5/cyfitter_cfg.c **** static void CYCONFIGCPYCODE(void *dest, const void *src, size_t n);
  90:Generated_Source\PSoC5/cyfitter_cfg.c **** CY_CFG_UNUSED
  91:Generated_Source\PSoC5/cyfitter_cfg.c **** static void CYCONFIGCPYCODE(void *dest, const void *src, size_t n)
  92:Generated_Source\PSoC5/cyfitter_cfg.c **** {
 102              		.loc 1 92 0
 103              		.cfi_startproc
 104              		@ args = 0, pretend = 0, frame = 16
 105              		@ frame_needed = 1, uses_anonymous_args = 0
 106 0000 80B5     		push	{r7, lr}
 107              		.cfi_def_cfa_offset 8
 108              		.cfi_offset 7, -8
 109              		.cfi_offset 14, -4
 110 0002 84B0     		sub	sp, sp, #16
 111              		.cfi_def_cfa_offset 24
 112 0004 00AF     		add	r7, sp, #0
 113              		.cfi_def_cfa_register 7
 114 0006 F860     		str	r0, [r7, #12]
 115 0008 B960     		str	r1, [r7, #8]
 116 000a 7A60     		str	r2, [r7, #4]
  93:Generated_Source\PSoC5/cyfitter_cfg.c **** 	(void)memcpy(dest, src, n);
 117              		.loc 1 93 0
 118 000c 7A68     		ldr	r2, [r7, #4]
 119 000e B968     		ldr	r1, [r7, #8]
 120 0010 F868     		ldr	r0, [r7, #12]
 121 0012 FFF7FEFF 		bl	memcpy
  94:Generated_Source\PSoC5/cyfitter_cfg.c **** }
 122              		.loc 1 94 0
 123 0016 00BF     		nop
 124 0018 1037     		adds	r7, r7, #16
 125              		.cfi_def_cfa_offset 8
 126 001a BD46     		mov	sp, r7
 127              		.cfi_def_cfa_register 13
 128              		@ sp needed
 129 001c 80BD     		pop	{r7, pc}
 130              		.cfi_endproc
 131              	.LFE2:
 132              		.size	CYCONFIGCPYCODE, .-CYCONFIGCPYCODE
 133 001e 00BF     		.section	.text.CyClockStartupError,"ax",%progbits
 134              		.align	2
ARM GAS  C:\Users\SEBAST~3\AppData\Local\Temp\ccQGNYwU.s 			page 5


 135              		.thumb
 136              		.thumb_func
 137              		.type	CyClockStartupError, %function
 138              	CyClockStartupError:
 139              	.LFB3:
  95:Generated_Source\PSoC5/cyfitter_cfg.c **** 
  96:Generated_Source\PSoC5/cyfitter_cfg.c **** 
  97:Generated_Source\PSoC5/cyfitter_cfg.c **** 
  98:Generated_Source\PSoC5/cyfitter_cfg.c **** 
  99:Generated_Source\PSoC5/cyfitter_cfg.c **** /* Clock startup error codes                                                   */
 100:Generated_Source\PSoC5/cyfitter_cfg.c **** #define CYCLOCKSTART_NO_ERROR    0u
 101:Generated_Source\PSoC5/cyfitter_cfg.c **** #define CYCLOCKSTART_XTAL_ERROR  1u
 102:Generated_Source\PSoC5/cyfitter_cfg.c **** #define CYCLOCKSTART_32KHZ_ERROR 2u
 103:Generated_Source\PSoC5/cyfitter_cfg.c **** #define CYCLOCKSTART_PLL_ERROR   3u
 104:Generated_Source\PSoC5/cyfitter_cfg.c **** #define CYCLOCKSTART_FLL_ERROR   4u
 105:Generated_Source\PSoC5/cyfitter_cfg.c **** #define CYCLOCKSTART_WCO_ERROR   5u
 106:Generated_Source\PSoC5/cyfitter_cfg.c **** 
 107:Generated_Source\PSoC5/cyfitter_cfg.c **** 
 108:Generated_Source\PSoC5/cyfitter_cfg.c **** #ifdef CY_NEED_CYCLOCKSTARTUPERROR
 109:Generated_Source\PSoC5/cyfitter_cfg.c **** /*******************************************************************************
 110:Generated_Source\PSoC5/cyfitter_cfg.c **** * Function Name: CyClockStartupError
 111:Generated_Source\PSoC5/cyfitter_cfg.c **** ********************************************************************************
 112:Generated_Source\PSoC5/cyfitter_cfg.c **** * Summary:
 113:Generated_Source\PSoC5/cyfitter_cfg.c **** *  If an error is encountered during clock configuration (crystal startup error,
 114:Generated_Source\PSoC5/cyfitter_cfg.c **** *  PLL lock error, etc.), the system will end up here.  Unless reimplemented by
 115:Generated_Source\PSoC5/cyfitter_cfg.c **** *  the customer, this function will stop in an infinite loop.
 116:Generated_Source\PSoC5/cyfitter_cfg.c **** *
 117:Generated_Source\PSoC5/cyfitter_cfg.c **** * Parameters:
 118:Generated_Source\PSoC5/cyfitter_cfg.c **** *   void
 119:Generated_Source\PSoC5/cyfitter_cfg.c **** *
 120:Generated_Source\PSoC5/cyfitter_cfg.c **** * Return:
 121:Generated_Source\PSoC5/cyfitter_cfg.c **** *   void
 122:Generated_Source\PSoC5/cyfitter_cfg.c **** *
 123:Generated_Source\PSoC5/cyfitter_cfg.c **** *******************************************************************************/
 124:Generated_Source\PSoC5/cyfitter_cfg.c **** CY_CFG_UNUSED
 125:Generated_Source\PSoC5/cyfitter_cfg.c **** static void CyClockStartupError(uint8 errorCode);
 126:Generated_Source\PSoC5/cyfitter_cfg.c **** CY_CFG_UNUSED
 127:Generated_Source\PSoC5/cyfitter_cfg.c **** static void CyClockStartupError(uint8 errorCode)
 128:Generated_Source\PSoC5/cyfitter_cfg.c **** {
 140              		.loc 1 128 0
 141              		.cfi_startproc
 142              		@ args = 0, pretend = 0, frame = 8
 143              		@ frame_needed = 1, uses_anonymous_args = 0
 144              		@ link register save eliminated.
 145 0000 80B4     		push	{r7}
 146              		.cfi_def_cfa_offset 4
 147              		.cfi_offset 7, -4
 148 0002 83B0     		sub	sp, sp, #12
 149              		.cfi_def_cfa_offset 16
 150 0004 00AF     		add	r7, sp, #0
 151              		.cfi_def_cfa_register 7
 152 0006 0346     		mov	r3, r0
 153 0008 FB71     		strb	r3, [r7, #7]
 154              	.L5:
 129:Generated_Source\PSoC5/cyfitter_cfg.c ****     /* To remove the compiler warning if errorCode not used.                */
 130:Generated_Source\PSoC5/cyfitter_cfg.c ****     errorCode = errorCode;
 131:Generated_Source\PSoC5/cyfitter_cfg.c **** 
ARM GAS  C:\Users\SEBAST~3\AppData\Local\Temp\ccQGNYwU.s 			page 6


 132:Generated_Source\PSoC5/cyfitter_cfg.c ****     /* If we have a clock startup error (bad MHz crystal, PLL lock, etc.),  */
 133:Generated_Source\PSoC5/cyfitter_cfg.c ****     /* we will end up here to allow the customer to implement something to  */
 134:Generated_Source\PSoC5/cyfitter_cfg.c ****     /* deal with the clock condition.                                       */
 135:Generated_Source\PSoC5/cyfitter_cfg.c **** 
 136:Generated_Source\PSoC5/cyfitter_cfg.c **** #ifdef CY_CFG_CLOCK_STARTUP_ERROR_CALLBACK
 137:Generated_Source\PSoC5/cyfitter_cfg.c ****     CY_CFG_Clock_Startup_ErrorCallback();
 138:Generated_Source\PSoC5/cyfitter_cfg.c **** #else
 139:Generated_Source\PSoC5/cyfitter_cfg.c ****     /*  If not using CY_CFG_CLOCK_STARTUP_ERROR_CALLBACK, place your clock startup code here. */
 140:Generated_Source\PSoC5/cyfitter_cfg.c ****     /* `#START CyClockStartupError` */
 141:Generated_Source\PSoC5/cyfitter_cfg.c **** 
 142:Generated_Source\PSoC5/cyfitter_cfg.c **** 
 143:Generated_Source\PSoC5/cyfitter_cfg.c **** 
 144:Generated_Source\PSoC5/cyfitter_cfg.c ****     /* `#END` */
 145:Generated_Source\PSoC5/cyfitter_cfg.c **** 
 146:Generated_Source\PSoC5/cyfitter_cfg.c ****     while(1) {}
 155              		.loc 1 146 0 discriminator 1
 156 000a FEE7     		b	.L5
 157              		.cfi_endproc
 158              	.LFE3:
 159              		.size	CyClockStartupError, .-CyClockStartupError
 160              		.section	.text.cfg_write_bytes32,"ax",%progbits
 161              		.align	2
 162              		.thumb
 163              		.thumb_func
 164              		.type	cfg_write_bytes32, %function
 165              	cfg_write_bytes32:
 166              	.LFB4:
 147:Generated_Source\PSoC5/cyfitter_cfg.c **** #endif /* CY_CFG_CLOCK_STARTUP_ERROR_CALLBACK */
 148:Generated_Source\PSoC5/cyfitter_cfg.c **** }
 149:Generated_Source\PSoC5/cyfitter_cfg.c **** #endif
 150:Generated_Source\PSoC5/cyfitter_cfg.c **** 
 151:Generated_Source\PSoC5/cyfitter_cfg.c **** #define CY_CFG_BASE_ADDR_COUNT 31u
 152:Generated_Source\PSoC5/cyfitter_cfg.c **** CYPACKED typedef struct
 153:Generated_Source\PSoC5/cyfitter_cfg.c **** {
 154:Generated_Source\PSoC5/cyfitter_cfg.c **** 	uint8 offset;
 155:Generated_Source\PSoC5/cyfitter_cfg.c **** 	uint8 value;
 156:Generated_Source\PSoC5/cyfitter_cfg.c **** } CYPACKED_ATTR cy_cfg_addrvalue_t;
 157:Generated_Source\PSoC5/cyfitter_cfg.c **** 
 158:Generated_Source\PSoC5/cyfitter_cfg.c **** 
 159:Generated_Source\PSoC5/cyfitter_cfg.c **** 
 160:Generated_Source\PSoC5/cyfitter_cfg.c **** /*******************************************************************************
 161:Generated_Source\PSoC5/cyfitter_cfg.c **** * Function Name: cfg_write_bytes32
 162:Generated_Source\PSoC5/cyfitter_cfg.c **** ********************************************************************************
 163:Generated_Source\PSoC5/cyfitter_cfg.c **** * Summary:
 164:Generated_Source\PSoC5/cyfitter_cfg.c **** *  This function is used for setting up the chip configuration areas that
 165:Generated_Source\PSoC5/cyfitter_cfg.c **** *  contain relatively sparse data.
 166:Generated_Source\PSoC5/cyfitter_cfg.c **** *
 167:Generated_Source\PSoC5/cyfitter_cfg.c **** * Parameters:
 168:Generated_Source\PSoC5/cyfitter_cfg.c **** *   void
 169:Generated_Source\PSoC5/cyfitter_cfg.c **** *
 170:Generated_Source\PSoC5/cyfitter_cfg.c **** * Return:
 171:Generated_Source\PSoC5/cyfitter_cfg.c **** *   void
 172:Generated_Source\PSoC5/cyfitter_cfg.c **** *
 173:Generated_Source\PSoC5/cyfitter_cfg.c **** *******************************************************************************/
 174:Generated_Source\PSoC5/cyfitter_cfg.c **** static void cfg_write_bytes32(const uint32 addr_table[], const cy_cfg_addrvalue_t data_table[]);
 175:Generated_Source\PSoC5/cyfitter_cfg.c **** static void cfg_write_bytes32(const uint32 addr_table[], const cy_cfg_addrvalue_t data_table[])
 176:Generated_Source\PSoC5/cyfitter_cfg.c **** {
ARM GAS  C:\Users\SEBAST~3\AppData\Local\Temp\ccQGNYwU.s 			page 7


 167              		.loc 1 176 0
 168              		.cfi_startproc
 169              		@ args = 0, pretend = 0, frame = 24
 170              		@ frame_needed = 1, uses_anonymous_args = 0
 171              		@ link register save eliminated.
 172 0000 80B4     		push	{r7}
 173              		.cfi_def_cfa_offset 4
 174              		.cfi_offset 7, -4
 175 0002 87B0     		sub	sp, sp, #28
 176              		.cfi_def_cfa_offset 32
 177 0004 00AF     		add	r7, sp, #0
 178              		.cfi_def_cfa_register 7
 179 0006 7860     		str	r0, [r7, #4]
 180 0008 3960     		str	r1, [r7]
 177:Generated_Source\PSoC5/cyfitter_cfg.c **** 	/* For 32-bit little-endian architectures */
 178:Generated_Source\PSoC5/cyfitter_cfg.c **** 	uint32 i, j = 0u;
 181              		.loc 1 178 0
 182 000a 0023     		movs	r3, #0
 183 000c 3B61     		str	r3, [r7, #16]
 179:Generated_Source\PSoC5/cyfitter_cfg.c **** 	for (i = 0u; i < CY_CFG_BASE_ADDR_COUNT; i++)
 184              		.loc 1 179 0
 185 000e 0023     		movs	r3, #0
 186 0010 7B61     		str	r3, [r7, #20]
 187 0012 27E0     		b	.L7
 188              	.L10:
 189              	.LBB2:
 180:Generated_Source\PSoC5/cyfitter_cfg.c **** 	{
 181:Generated_Source\PSoC5/cyfitter_cfg.c **** 		uint32 baseAddr = addr_table[i];
 190              		.loc 1 181 0
 191 0014 7B69     		ldr	r3, [r7, #20]
 192 0016 9B00     		lsls	r3, r3, #2
 193 0018 7A68     		ldr	r2, [r7, #4]
 194 001a 1344     		add	r3, r3, r2
 195 001c 1B68     		ldr	r3, [r3]
 196 001e BB60     		str	r3, [r7, #8]
 182:Generated_Source\PSoC5/cyfitter_cfg.c **** 		uint8 count = (uint8)baseAddr;
 197              		.loc 1 182 0
 198 0020 BB68     		ldr	r3, [r7, #8]
 199 0022 FB73     		strb	r3, [r7, #15]
 183:Generated_Source\PSoC5/cyfitter_cfg.c **** 		baseAddr &= 0xFFFFFF00u;
 200              		.loc 1 183 0
 201 0024 BB68     		ldr	r3, [r7, #8]
 202 0026 23F0FF03 		bic	r3, r3, #255
 203 002a BB60     		str	r3, [r7, #8]
 184:Generated_Source\PSoC5/cyfitter_cfg.c **** 		while (count != 0u)
 204              		.loc 1 184 0
 205 002c 14E0     		b	.L8
 206              	.L9:
 185:Generated_Source\PSoC5/cyfitter_cfg.c **** 		{
 186:Generated_Source\PSoC5/cyfitter_cfg.c **** 			CY_SET_REG8((void *)(baseAddr + data_table[j].offset), data_table[j].value);
 207              		.loc 1 186 0
 208 002e 3B69     		ldr	r3, [r7, #16]
 209 0030 5B00     		lsls	r3, r3, #1
 210 0032 3A68     		ldr	r2, [r7]
 211 0034 1344     		add	r3, r3, r2
 212 0036 1B78     		ldrb	r3, [r3]	@ zero_extendqisi2
 213 0038 1A46     		mov	r2, r3
ARM GAS  C:\Users\SEBAST~3\AppData\Local\Temp\ccQGNYwU.s 			page 8


 214 003a BB68     		ldr	r3, [r7, #8]
 215 003c 1344     		add	r3, r3, r2
 216 003e 1946     		mov	r1, r3
 217 0040 3B69     		ldr	r3, [r7, #16]
 218 0042 5B00     		lsls	r3, r3, #1
 219 0044 3A68     		ldr	r2, [r7]
 220 0046 1344     		add	r3, r3, r2
 221 0048 5B78     		ldrb	r3, [r3, #1]	@ zero_extendqisi2
 222 004a 0B70     		strb	r3, [r1]
 187:Generated_Source\PSoC5/cyfitter_cfg.c **** 			j++;
 223              		.loc 1 187 0
 224 004c 3B69     		ldr	r3, [r7, #16]
 225 004e 0133     		adds	r3, r3, #1
 226 0050 3B61     		str	r3, [r7, #16]
 188:Generated_Source\PSoC5/cyfitter_cfg.c **** 			count--;
 227              		.loc 1 188 0
 228 0052 FB7B     		ldrb	r3, [r7, #15]	@ zero_extendqisi2
 229 0054 013B     		subs	r3, r3, #1
 230 0056 FB73     		strb	r3, [r7, #15]
 231              	.L8:
 184:Generated_Source\PSoC5/cyfitter_cfg.c **** 		{
 232              		.loc 1 184 0
 233 0058 FB7B     		ldrb	r3, [r7, #15]	@ zero_extendqisi2
 234 005a 002B     		cmp	r3, #0
 235 005c E7D1     		bne	.L9
 236              	.LBE2:
 179:Generated_Source\PSoC5/cyfitter_cfg.c **** 	{
 237              		.loc 1 179 0 discriminator 2
 238 005e 7B69     		ldr	r3, [r7, #20]
 239 0060 0133     		adds	r3, r3, #1
 240 0062 7B61     		str	r3, [r7, #20]
 241              	.L7:
 179:Generated_Source\PSoC5/cyfitter_cfg.c **** 	{
 242              		.loc 1 179 0 is_stmt 0 discriminator 1
 243 0064 7B69     		ldr	r3, [r7, #20]
 244 0066 1E2B     		cmp	r3, #30
 245 0068 D4D9     		bls	.L10
 189:Generated_Source\PSoC5/cyfitter_cfg.c **** 		}
 190:Generated_Source\PSoC5/cyfitter_cfg.c **** 	}
 191:Generated_Source\PSoC5/cyfitter_cfg.c **** }
 246              		.loc 1 191 0 is_stmt 1
 247 006a 00BF     		nop
 248 006c 1C37     		adds	r7, r7, #28
 249              		.cfi_def_cfa_offset 4
 250 006e BD46     		mov	sp, r7
 251              		.cfi_def_cfa_register 13
 252              		@ sp needed
 253 0070 80BC     		pop	{r7}
 254              		.cfi_restore 7
 255              		.cfi_def_cfa_offset 0
 256 0072 7047     		bx	lr
 257              		.cfi_endproc
 258              	.LFE4:
 259              		.size	cfg_write_bytes32, .-cfg_write_bytes32
 260              		.section	.text.ClockSetup,"ax",%progbits
 261              		.align	2
 262              		.thumb
ARM GAS  C:\Users\SEBAST~3\AppData\Local\Temp\ccQGNYwU.s 			page 9


 263              		.thumb_func
 264              		.type	ClockSetup, %function
 265              	ClockSetup:
 266              	.LFB5:
 192:Generated_Source\PSoC5/cyfitter_cfg.c **** 
 193:Generated_Source\PSoC5/cyfitter_cfg.c **** /*******************************************************************************
 194:Generated_Source\PSoC5/cyfitter_cfg.c **** * Function Name: ClockSetup
 195:Generated_Source\PSoC5/cyfitter_cfg.c **** ********************************************************************************
 196:Generated_Source\PSoC5/cyfitter_cfg.c **** *
 197:Generated_Source\PSoC5/cyfitter_cfg.c **** * Summary:
 198:Generated_Source\PSoC5/cyfitter_cfg.c **** *  Performs the initialization of all of the clocks in the device based on the
 199:Generated_Source\PSoC5/cyfitter_cfg.c **** *  settings in the Clock tab of the DWR.  This includes enabling the requested
 200:Generated_Source\PSoC5/cyfitter_cfg.c **** *  clocks and setting the necessary dividers to produce the desired frequency. 
 201:Generated_Source\PSoC5/cyfitter_cfg.c **** *
 202:Generated_Source\PSoC5/cyfitter_cfg.c **** * Parameters:
 203:Generated_Source\PSoC5/cyfitter_cfg.c **** *  void
 204:Generated_Source\PSoC5/cyfitter_cfg.c **** *
 205:Generated_Source\PSoC5/cyfitter_cfg.c **** * Return:
 206:Generated_Source\PSoC5/cyfitter_cfg.c **** *  void
 207:Generated_Source\PSoC5/cyfitter_cfg.c **** *
 208:Generated_Source\PSoC5/cyfitter_cfg.c **** *******************************************************************************/
 209:Generated_Source\PSoC5/cyfitter_cfg.c **** static void ClockSetup(void);
 210:Generated_Source\PSoC5/cyfitter_cfg.c **** static void ClockSetup(void)
 211:Generated_Source\PSoC5/cyfitter_cfg.c **** {
 267              		.loc 1 211 0
 268              		.cfi_startproc
 269              		@ args = 0, pretend = 0, frame = 8
 270              		@ frame_needed = 1, uses_anonymous_args = 0
 271 0000 80B5     		push	{r7, lr}
 272              		.cfi_def_cfa_offset 8
 273              		.cfi_offset 7, -8
 274              		.cfi_offset 14, -4
 275 0002 82B0     		sub	sp, sp, #8
 276              		.cfi_def_cfa_offset 16
 277 0004 00AF     		add	r7, sp, #0
 278              		.cfi_def_cfa_register 7
 212:Generated_Source\PSoC5/cyfitter_cfg.c **** 	/* CYDEV_CLKDIST_ACFG0_CFG0 Address: CYREG_CLKDIST_ACFG0_CFG0 Size (bytes): 8 */
 213:Generated_Source\PSoC5/cyfitter_cfg.c **** 	static const uint8 CYCODE BS_CYDEV_CLKDIST_ACFG0_CFG0_VAL[] = {
 214:Generated_Source\PSoC5/cyfitter_cfg.c **** 		0x05u, 0x00u, 0x14u, 0x01u, 0x8Fu, 0x01u, 0x18u, 0x01u};
 215:Generated_Source\PSoC5/cyfitter_cfg.c **** 
 216:Generated_Source\PSoC5/cyfitter_cfg.c **** 	uint32 timeout;
 217:Generated_Source\PSoC5/cyfitter_cfg.c **** 	uint8 pllLock;
 218:Generated_Source\PSoC5/cyfitter_cfg.c **** 
 219:Generated_Source\PSoC5/cyfitter_cfg.c **** 
 220:Generated_Source\PSoC5/cyfitter_cfg.c **** 	/* Configure Digital Clocks based on settings from Clock DWR */
 221:Generated_Source\PSoC5/cyfitter_cfg.c **** 	CY_SET_XTND_REG16((void CYFAR *)(CYREG_CLKDIST_DCFG0_CFG0), 0x0000u);
 279              		.loc 1 221 0
 280 0006 484B     		ldr	r3, .L16
 281 0008 0022     		movs	r2, #0
 282 000a 1A80     		strh	r2, [r3]	@ movhi
 222:Generated_Source\PSoC5/cyfitter_cfg.c **** 	CY_SET_XTND_REG8((void CYFAR *)(CYREG_CLKDIST_DCFG0_CFG0 + 0x2u), 0x50u);
 283              		.loc 1 222 0
 284 000c 474B     		ldr	r3, .L16+4
 285 000e 5022     		movs	r2, #80
 286 0010 1A70     		strb	r2, [r3]
 223:Generated_Source\PSoC5/cyfitter_cfg.c **** 	CY_SET_XTND_REG16((void CYFAR *)(CYREG_CLKDIST_DCFG1_CFG0), 0x003Fu);
 287              		.loc 1 223 0
ARM GAS  C:\Users\SEBAST~3\AppData\Local\Temp\ccQGNYwU.s 			page 10


 288 0012 474B     		ldr	r3, .L16+8
 289 0014 3F22     		movs	r2, #63
 290 0016 1A80     		strh	r2, [r3]	@ movhi
 224:Generated_Source\PSoC5/cyfitter_cfg.c **** 	CY_SET_XTND_REG8((void CYFAR *)(CYREG_CLKDIST_DCFG1_CFG0 + 0x2u), 0x18u);
 291              		.loc 1 224 0
 292 0018 464B     		ldr	r3, .L16+12
 293 001a 1822     		movs	r2, #24
 294 001c 1A70     		strb	r2, [r3]
 225:Generated_Source\PSoC5/cyfitter_cfg.c **** 	CY_SET_XTND_REG16((void CYFAR *)(CYREG_CLKDIST_DCFG2_CFG0), 0x003Fu);
 295              		.loc 1 225 0
 296 001e 464B     		ldr	r3, .L16+16
 297 0020 3F22     		movs	r2, #63
 298 0022 1A80     		strh	r2, [r3]	@ movhi
 226:Generated_Source\PSoC5/cyfitter_cfg.c **** 	CY_SET_XTND_REG8((void CYFAR *)(CYREG_CLKDIST_DCFG2_CFG0 + 0x2u), 0x18u);
 299              		.loc 1 226 0
 300 0024 454B     		ldr	r3, .L16+20
 301 0026 1822     		movs	r2, #24
 302 0028 1A70     		strb	r2, [r3]
 227:Generated_Source\PSoC5/cyfitter_cfg.c **** 	CY_SET_XTND_REG16((void CYFAR *)(CYREG_CLKDIST_DCFG3_CFG0), 0x003Fu);
 303              		.loc 1 227 0
 304 002a 454B     		ldr	r3, .L16+24
 305 002c 3F22     		movs	r2, #63
 306 002e 1A80     		strh	r2, [r3]	@ movhi
 228:Generated_Source\PSoC5/cyfitter_cfg.c **** 	CY_SET_XTND_REG8((void CYFAR *)(CYREG_CLKDIST_DCFG3_CFG0 + 0x2u), 0x18u);
 307              		.loc 1 228 0
 308 0030 444B     		ldr	r3, .L16+28
 309 0032 1822     		movs	r2, #24
 310 0034 1A70     		strb	r2, [r3]
 229:Generated_Source\PSoC5/cyfitter_cfg.c **** 	CY_SET_XTND_REG16((void CYFAR *)(CYREG_CLKDIST_DCFG4_CFG0), 0x003Fu);
 311              		.loc 1 229 0
 312 0036 444B     		ldr	r3, .L16+32
 313 0038 3F22     		movs	r2, #63
 314 003a 1A80     		strh	r2, [r3]	@ movhi
 230:Generated_Source\PSoC5/cyfitter_cfg.c **** 	CY_SET_XTND_REG8((void CYFAR *)(CYREG_CLKDIST_DCFG4_CFG0 + 0x2u), 0x18u);
 315              		.loc 1 230 0
 316 003c 434B     		ldr	r3, .L16+36
 317 003e 1822     		movs	r2, #24
 318 0040 1A70     		strb	r2, [r3]
 231:Generated_Source\PSoC5/cyfitter_cfg.c **** 
 232:Generated_Source\PSoC5/cyfitter_cfg.c **** 	/* Configure Analog Clocks based on settings from Clock DWR */
 233:Generated_Source\PSoC5/cyfitter_cfg.c **** 	CYCONFIGCPYCODE((void CYFAR *)(CYREG_CLKDIST_ACFG0_CFG0), (const void CYCODE *)(BS_CYDEV_CLKDIST_A
 319              		.loc 1 233 0
 320 0042 0822     		movs	r2, #8
 321 0044 4249     		ldr	r1, .L16+40
 322 0046 4348     		ldr	r0, .L16+44
 323 0048 FFF7FEFF 		bl	CYCONFIGCPYCODE
 234:Generated_Source\PSoC5/cyfitter_cfg.c **** 
 235:Generated_Source\PSoC5/cyfitter_cfg.c **** 	/* Configure ILO based on settings from Clock DWR */
 236:Generated_Source\PSoC5/cyfitter_cfg.c **** 	CY_SET_XTND_REG8((void CYFAR *)(CYREG_SLOWCLK_ILO_CR0), 0x06u);
 324              		.loc 1 236 0
 325 004c 424B     		ldr	r3, .L16+48
 326 004e 0622     		movs	r2, #6
 327 0050 1A70     		strb	r2, [r3]
 237:Generated_Source\PSoC5/cyfitter_cfg.c **** 
 238:Generated_Source\PSoC5/cyfitter_cfg.c **** 	/* Configure IMO based on settings from Clock DWR */
 239:Generated_Source\PSoC5/cyfitter_cfg.c **** 	CY_SET_XTND_REG8((void CYFAR *)(CYREG_FASTCLK_IMO_CR), 0x52u);
 328              		.loc 1 239 0
ARM GAS  C:\Users\SEBAST~3\AppData\Local\Temp\ccQGNYwU.s 			page 11


 329 0052 424B     		ldr	r3, .L16+52
 330 0054 5222     		movs	r2, #82
 331 0056 1A70     		strb	r2, [r3]
 240:Generated_Source\PSoC5/cyfitter_cfg.c **** 	CY_SET_XTND_REG8((void CYFAR *)(CYREG_IMO_TR1), (CY_GET_XTND_REG8((void CYFAR *)CYREG_FLSHID_CUST_
 332              		.loc 1 240 0
 333 0058 414B     		ldr	r3, .L16+56
 334 005a 424A     		ldr	r2, .L16+60
 335 005c 1278     		ldrb	r2, [r2]
 336 005e D2B2     		uxtb	r2, r2
 337 0060 1A70     		strb	r2, [r3]
 241:Generated_Source\PSoC5/cyfitter_cfg.c **** 
 242:Generated_Source\PSoC5/cyfitter_cfg.c **** 	/* Configure PLL based on settings from Clock DWR */
 243:Generated_Source\PSoC5/cyfitter_cfg.c **** 	CY_SET_XTND_REG16((void CYFAR *)(CYREG_FASTCLK_PLL_P), 0x0818u);
 338              		.loc 1 243 0
 339 0062 414B     		ldr	r3, .L16+64
 340 0064 40F61802 		movw	r2, #2072
 341 0068 1A80     		strh	r2, [r3]	@ movhi
 244:Generated_Source\PSoC5/cyfitter_cfg.c **** 	CY_SET_XTND_REG16((void CYFAR *)(CYREG_FASTCLK_PLL_CFG0), 0x1251u);
 342              		.loc 1 244 0
 343 006a 404B     		ldr	r3, .L16+68
 344 006c 41F25122 		movw	r2, #4689
 345 0070 1A80     		strh	r2, [r3]	@ movhi
 245:Generated_Source\PSoC5/cyfitter_cfg.c **** 	/* Wait up to 250us for the PLL to lock */
 246:Generated_Source\PSoC5/cyfitter_cfg.c **** 	pllLock = 0u;
 346              		.loc 1 246 0
 347 0072 0023     		movs	r3, #0
 348 0074 FB70     		strb	r3, [r7, #3]
 247:Generated_Source\PSoC5/cyfitter_cfg.c **** 	for (timeout = 250u / 10u; (timeout > 0u) && (pllLock != 0x03u); timeout--)
 349              		.loc 1 247 0
 350 0076 1923     		movs	r3, #25
 351 0078 7B60     		str	r3, [r7, #4]
 352 007a 14E0     		b	.L12
 353              	.L14:
 248:Generated_Source\PSoC5/cyfitter_cfg.c **** 	{ 
 249:Generated_Source\PSoC5/cyfitter_cfg.c **** 		pllLock = 0x03u & ((uint8)((uint8)pllLock << 1) | ((CY_GET_XTND_REG8((void CYFAR *)CYREG_FASTCLK_
 354              		.loc 1 249 0 discriminator 4
 355 007c FB78     		ldrb	r3, [r7, #3]
 356 007e 5B00     		lsls	r3, r3, #1
 357 0080 DAB2     		uxtb	r2, r3
 358 0082 3B4B     		ldr	r3, .L16+72
 359 0084 1B78     		ldrb	r3, [r3]
 360 0086 DBB2     		uxtb	r3, r3
 361 0088 03F00103 		and	r3, r3, #1
 362 008c DBB2     		uxtb	r3, r3
 363 008e 1343     		orrs	r3, r3, r2
 364 0090 DBB2     		uxtb	r3, r3
 365 0092 03F00303 		and	r3, r3, #3
 366 0096 FB70     		strb	r3, [r7, #3]
 250:Generated_Source\PSoC5/cyfitter_cfg.c **** 		CyDelayCycles(10u * 48u); /* Delay 10us based on 48MHz clock */
 367              		.loc 1 250 0 discriminator 4
 368 0098 4FF4F070 		mov	r0, #480
 369 009c FFF7FEFF 		bl	CyDelayCycles
 247:Generated_Source\PSoC5/cyfitter_cfg.c **** 	for (timeout = 250u / 10u; (timeout > 0u) && (pllLock != 0x03u); timeout--)
 370              		.loc 1 247 0 discriminator 4
 371 00a0 7B68     		ldr	r3, [r7, #4]
 372 00a2 013B     		subs	r3, r3, #1
 373 00a4 7B60     		str	r3, [r7, #4]
ARM GAS  C:\Users\SEBAST~3\AppData\Local\Temp\ccQGNYwU.s 			page 12


 374              	.L12:
 247:Generated_Source\PSoC5/cyfitter_cfg.c **** 	for (timeout = 250u / 10u; (timeout > 0u) && (pllLock != 0x03u); timeout--)
 375              		.loc 1 247 0 is_stmt 0 discriminator 1
 376 00a6 7B68     		ldr	r3, [r7, #4]
 377 00a8 002B     		cmp	r3, #0
 378 00aa 02D0     		beq	.L13
 247:Generated_Source\PSoC5/cyfitter_cfg.c **** 	for (timeout = 250u / 10u; (timeout > 0u) && (pllLock != 0x03u); timeout--)
 379              		.loc 1 247 0 discriminator 3
 380 00ac FB78     		ldrb	r3, [r7, #3]	@ zero_extendqisi2
 381 00ae 032B     		cmp	r3, #3
 382 00b0 E4D1     		bne	.L14
 383              	.L13:
 251:Generated_Source\PSoC5/cyfitter_cfg.c **** 	}
 252:Generated_Source\PSoC5/cyfitter_cfg.c **** 	/* If we ran out of time the PLL didn't lock so go to the error function */
 253:Generated_Source\PSoC5/cyfitter_cfg.c **** 	if (timeout == 0u)
 384              		.loc 1 253 0 is_stmt 1
 385 00b2 7B68     		ldr	r3, [r7, #4]
 386 00b4 002B     		cmp	r3, #0
 387 00b6 02D1     		bne	.L15
 254:Generated_Source\PSoC5/cyfitter_cfg.c **** 	{
 255:Generated_Source\PSoC5/cyfitter_cfg.c **** 		CyClockStartupError(CYCLOCKSTART_PLL_ERROR);
 388              		.loc 1 255 0
 389 00b8 0320     		movs	r0, #3
 390 00ba FFF7FEFF 		bl	CyClockStartupError
 391              	.L15:
 256:Generated_Source\PSoC5/cyfitter_cfg.c **** 	}
 257:Generated_Source\PSoC5/cyfitter_cfg.c **** 
 258:Generated_Source\PSoC5/cyfitter_cfg.c **** 	/* Configure Bus/Master Clock based on settings from Clock DWR */
 259:Generated_Source\PSoC5/cyfitter_cfg.c **** 	CY_SET_XTND_REG16((void CYFAR *)(CYREG_CLKDIST_MSTR0), 0x0100u);
 392              		.loc 1 259 0
 393 00be 2D4B     		ldr	r3, .L16+76
 394 00c0 4FF48072 		mov	r2, #256
 395 00c4 1A80     		strh	r2, [r3]	@ movhi
 260:Generated_Source\PSoC5/cyfitter_cfg.c **** 	CY_SET_XTND_REG8((void CYFAR *)(CYREG_CLKDIST_MSTR0), 0x07u);
 396              		.loc 1 260 0
 397 00c6 2B4B     		ldr	r3, .L16+76
 398 00c8 0722     		movs	r2, #7
 399 00ca 1A70     		strb	r2, [r3]
 261:Generated_Source\PSoC5/cyfitter_cfg.c **** 	CY_SET_XTND_REG8((void CYFAR *)(CYREG_CLKDIST_BCFG0), 0x00u);
 400              		.loc 1 261 0
 401 00cc 2A4B     		ldr	r3, .L16+80
 402 00ce 0022     		movs	r2, #0
 403 00d0 1A70     		strb	r2, [r3]
 262:Generated_Source\PSoC5/cyfitter_cfg.c **** 	CY_SET_XTND_REG8((void CYFAR *)(CYREG_CLKDIST_BCFG2), 0x48u);
 404              		.loc 1 262 0
 405 00d2 2A4B     		ldr	r3, .L16+84
 406 00d4 4822     		movs	r2, #72
 407 00d6 1A70     		strb	r2, [r3]
 263:Generated_Source\PSoC5/cyfitter_cfg.c **** 	CY_SET_XTND_REG8((void CYFAR *)(CYREG_CLKDIST_MSTR0), 0x00u);
 408              		.loc 1 263 0
 409 00d8 264B     		ldr	r3, .L16+76
 410 00da 0022     		movs	r2, #0
 411 00dc 1A70     		strb	r2, [r3]
 264:Generated_Source\PSoC5/cyfitter_cfg.c **** 
 265:Generated_Source\PSoC5/cyfitter_cfg.c **** 	/* Configure USB Clock based on settings from Clock DWR */
 266:Generated_Source\PSoC5/cyfitter_cfg.c **** 	CY_SET_XTND_REG8((void CYFAR *)(CYREG_CLKDIST_UCFG), 0x00u);
 412              		.loc 1 266 0
ARM GAS  C:\Users\SEBAST~3\AppData\Local\Temp\ccQGNYwU.s 			page 13


 413 00de 284B     		ldr	r3, .L16+88
 414 00e0 0022     		movs	r2, #0
 415 00e2 1A70     		strb	r2, [r3]
 267:Generated_Source\PSoC5/cyfitter_cfg.c **** 	CY_SET_XTND_REG8((void CYFAR *)(CYREG_CLKDIST_LD), 0x02u);
 416              		.loc 1 267 0
 417 00e4 274B     		ldr	r3, .L16+92
 418 00e6 0222     		movs	r2, #2
 419 00e8 1A70     		strb	r2, [r3]
 268:Generated_Source\PSoC5/cyfitter_cfg.c **** 	CY_SET_XTND_REG8((void CYFAR *)(CYREG_CLKDIST_DLY1), 0x04u);
 420              		.loc 1 268 0
 421 00ea 274B     		ldr	r3, .L16+96
 422 00ec 0422     		movs	r2, #4
 423 00ee 1A70     		strb	r2, [r3]
 269:Generated_Source\PSoC5/cyfitter_cfg.c **** 
 270:Generated_Source\PSoC5/cyfitter_cfg.c **** 	CY_SET_XTND_REG8((void CYFAR *)(CYREG_PM_ACT_CFG2), ((CY_GET_XTND_REG8((void CYFAR *)CYREG_PM_ACT_
 424              		.loc 1 270 0
 425 00f0 264A     		ldr	r2, .L16+100
 426 00f2 264B     		ldr	r3, .L16+100
 427 00f4 1B78     		ldrb	r3, [r3]
 428 00f6 DBB2     		uxtb	r3, r3
 429 00f8 43F01F03 		orr	r3, r3, #31
 430 00fc DBB2     		uxtb	r3, r3
 431 00fe 1370     		strb	r3, [r2]
 271:Generated_Source\PSoC5/cyfitter_cfg.c **** 	CY_SET_XTND_REG8((void CYFAR *)(CYREG_PM_ACT_CFG1), ((CY_GET_XTND_REG8((void CYFAR *)CYREG_PM_ACT_
 432              		.loc 1 271 0
 433 0100 234A     		ldr	r2, .L16+104
 434 0102 234B     		ldr	r3, .L16+104
 435 0104 1B78     		ldrb	r3, [r3]
 436 0106 DBB2     		uxtb	r3, r3
 437 0108 43F00203 		orr	r3, r3, #2
 438 010c DBB2     		uxtb	r3, r3
 439 010e 1370     		strb	r3, [r2]
 272:Generated_Source\PSoC5/cyfitter_cfg.c **** 	CY_SET_XTND_REG8((void CYFAR *)(CYREG_PM_ACT_CFG0), ((CY_GET_XTND_REG8((void CYFAR *)CYREG_PM_ACT_
 440              		.loc 1 272 0
 441 0110 204A     		ldr	r2, .L16+108
 442 0112 204B     		ldr	r3, .L16+108
 443 0114 1B78     		ldrb	r3, [r3]
 444 0116 DBB2     		uxtb	r3, r3
 445 0118 63F07F03 		orn	r3, r3, #127
 446 011c DBB2     		uxtb	r3, r3
 447 011e 1370     		strb	r3, [r2]
 273:Generated_Source\PSoC5/cyfitter_cfg.c **** }
 448              		.loc 1 273 0
 449 0120 00BF     		nop
 450 0122 0837     		adds	r7, r7, #8
 451              		.cfi_def_cfa_offset 8
 452 0124 BD46     		mov	sp, r7
 453              		.cfi_def_cfa_register 13
 454              		@ sp needed
 455 0126 80BD     		pop	{r7, pc}
 456              	.L17:
 457              		.align	2
 458              	.L16:
 459 0128 80400040 		.word	1073758336
 460 012c 82400040 		.word	1073758338
 461 0130 84400040 		.word	1073758340
 462 0134 86400040 		.word	1073758342
ARM GAS  C:\Users\SEBAST~3\AppData\Local\Temp\ccQGNYwU.s 			page 14


 463 0138 88400040 		.word	1073758344
 464 013c 8A400040 		.word	1073758346
 465 0140 8C400040 		.word	1073758348
 466 0144 8E400040 		.word	1073758350
 467 0148 90400040 		.word	1073758352
 468 014c 92400040 		.word	1073758354
 469 0150 0C000000 		.word	BS_CYDEV_CLKDIST_ACFG0_CFG0_VAL.5029
 470 0154 00410040 		.word	1073758464
 471 0158 00430040 		.word	1073758976
 472 015c 00420040 		.word	1073758720
 473 0160 A1460040 		.word	1073759905
 474 0164 0F010049 		.word	1224737039
 475 0168 22420040 		.word	1073758754
 476 016c 20420040 		.word	1073758752
 477 0170 25420040 		.word	1073758757
 478 0174 04400040 		.word	1073758212
 479 0178 06400040 		.word	1073758214
 480 017c 08400040 		.word	1073758216
 481 0180 09400040 		.word	1073758217
 482 0184 01400040 		.word	1073758209
 483 0188 0B400040 		.word	1073758219
 484 018c A2430040 		.word	1073759138
 485 0190 A1430040 		.word	1073759137
 486 0194 A0430040 		.word	1073759136
 487              		.cfi_endproc
 488              	.LFE5:
 489              		.size	ClockSetup, .-ClockSetup
 490              		.section	.text.AnalogSetDefault,"ax",%progbits
 491              		.align	2
 492              		.thumb
 493              		.thumb_func
 494              		.type	AnalogSetDefault, %function
 495              	AnalogSetDefault:
 496              	.LFB6:
 274:Generated_Source\PSoC5/cyfitter_cfg.c **** 
 275:Generated_Source\PSoC5/cyfitter_cfg.c **** 
 276:Generated_Source\PSoC5/cyfitter_cfg.c **** /* Analog API Functions */
 277:Generated_Source\PSoC5/cyfitter_cfg.c **** 
 278:Generated_Source\PSoC5/cyfitter_cfg.c **** 
 279:Generated_Source\PSoC5/cyfitter_cfg.c **** /*******************************************************************************
 280:Generated_Source\PSoC5/cyfitter_cfg.c **** * Function Name: AnalogSetDefault
 281:Generated_Source\PSoC5/cyfitter_cfg.c **** ********************************************************************************
 282:Generated_Source\PSoC5/cyfitter_cfg.c **** *
 283:Generated_Source\PSoC5/cyfitter_cfg.c **** * Summary:
 284:Generated_Source\PSoC5/cyfitter_cfg.c **** *  Sets up the analog portions of the chip to default values based on chip
 285:Generated_Source\PSoC5/cyfitter_cfg.c **** *  configuration options from the project.
 286:Generated_Source\PSoC5/cyfitter_cfg.c **** *
 287:Generated_Source\PSoC5/cyfitter_cfg.c **** * Parameters:
 288:Generated_Source\PSoC5/cyfitter_cfg.c **** *  void
 289:Generated_Source\PSoC5/cyfitter_cfg.c **** *
 290:Generated_Source\PSoC5/cyfitter_cfg.c **** * Return:
 291:Generated_Source\PSoC5/cyfitter_cfg.c **** *  void
 292:Generated_Source\PSoC5/cyfitter_cfg.c **** *
 293:Generated_Source\PSoC5/cyfitter_cfg.c **** *******************************************************************************/
 294:Generated_Source\PSoC5/cyfitter_cfg.c **** static void AnalogSetDefault(void);
 295:Generated_Source\PSoC5/cyfitter_cfg.c **** static void AnalogSetDefault(void)
 296:Generated_Source\PSoC5/cyfitter_cfg.c **** {
ARM GAS  C:\Users\SEBAST~3\AppData\Local\Temp\ccQGNYwU.s 			page 15


 497              		.loc 1 296 0
 498              		.cfi_startproc
 499              		@ args = 0, pretend = 0, frame = 8
 500              		@ frame_needed = 1, uses_anonymous_args = 0
 501              		@ link register save eliminated.
 502 0000 80B4     		push	{r7}
 503              		.cfi_def_cfa_offset 4
 504              		.cfi_offset 7, -4
 505 0002 83B0     		sub	sp, sp, #12
 506              		.cfi_def_cfa_offset 16
 507 0004 00AF     		add	r7, sp, #0
 508              		.cfi_def_cfa_register 7
 297:Generated_Source\PSoC5/cyfitter_cfg.c **** 	uint8 bg_xover_inl_trim = CY_GET_XTND_REG8((void CYFAR *)(CYREG_FLSHID_MFG_CFG_BG_XOVER_INL_TRIM +
 509              		.loc 1 297 0
 510 0006 0E4B     		ldr	r3, .L19
 511 0008 1B78     		ldrb	r3, [r3]
 512 000a FB71     		strb	r3, [r7, #7]
 298:Generated_Source\PSoC5/cyfitter_cfg.c **** 	CY_SET_XTND_REG8((void CYFAR *)(CYREG_BG_DFT0), (bg_xover_inl_trim & 0x07u));
 513              		.loc 1 298 0
 514 000c 0D4A     		ldr	r2, .L19+4
 515 000e FB79     		ldrb	r3, [r7, #7]
 516 0010 03F00703 		and	r3, r3, #7
 517 0014 DBB2     		uxtb	r3, r3
 518 0016 1370     		strb	r3, [r2]
 299:Generated_Source\PSoC5/cyfitter_cfg.c **** 	CY_SET_XTND_REG8((void CYFAR *)(CYREG_BG_DFT1), ((bg_xover_inl_trim >> 4) & 0x0Fu));
 519              		.loc 1 299 0
 520 0018 0B4A     		ldr	r2, .L19+8
 521 001a FB79     		ldrb	r3, [r7, #7]	@ zero_extendqisi2
 522 001c 1B09     		lsrs	r3, r3, #4
 523 001e DBB2     		uxtb	r3, r3
 524 0020 1370     		strb	r3, [r2]
 300:Generated_Source\PSoC5/cyfitter_cfg.c **** 	CY_SET_XTND_REG8((void CYFAR *)CYREG_PRT0_AG, 0x01u);
 525              		.loc 1 300 0
 526 0022 0A4B     		ldr	r3, .L19+12
 527 0024 0122     		movs	r2, #1
 528 0026 1A70     		strb	r2, [r3]
 301:Generated_Source\PSoC5/cyfitter_cfg.c **** 	CY_SET_XTND_REG8((void CYFAR *)CYREG_DSM0_SW0, 0x10u);
 529              		.loc 1 301 0
 530 0028 094B     		ldr	r3, .L19+16
 531 002a 1022     		movs	r2, #16
 532 002c 1A70     		strb	r2, [r3]
 302:Generated_Source\PSoC5/cyfitter_cfg.c **** 	CY_SET_XTND_REG8((void CYFAR *)CYREG_PUMP_CR0, 0x44u);
 533              		.loc 1 302 0
 534 002e 094B     		ldr	r3, .L19+20
 535 0030 4422     		movs	r2, #68
 536 0032 1A70     		strb	r2, [r3]
 303:Generated_Source\PSoC5/cyfitter_cfg.c **** }
 537              		.loc 1 303 0
 538 0034 00BF     		nop
 539 0036 0C37     		adds	r7, r7, #12
 540              		.cfi_def_cfa_offset 4
 541 0038 BD46     		mov	sp, r7
 542              		.cfi_def_cfa_register 13
 543              		@ sp needed
 544 003a 80BC     		pop	{r7}
 545              		.cfi_restore 7
 546              		.cfi_def_cfa_offset 0
ARM GAS  C:\Users\SEBAST~3\AppData\Local\Temp\ccQGNYwU.s 			page 16


 547 003c 7047     		bx	lr
 548              	.L20:
 549 003e 00BF     		.align	2
 550              	.L19:
 551 0040 CF010049 		.word	1224737231
 552 0044 6E580040 		.word	1073764462
 553 0048 6F580040 		.word	1073764463
 554 004c 0D510040 		.word	1073762573
 555 0050 005B0040 		.word	1073765120
 556 0054 76580040 		.word	1073764470
 557              		.cfi_endproc
 558              	.LFE6:
 559              		.size	AnalogSetDefault, .-AnalogSetDefault
 560              		.section	.text.SetAnalogRoutingPumps,"ax",%progbits
 561              		.align	2
 562              		.global	SetAnalogRoutingPumps
 563              		.thumb
 564              		.thumb_func
 565              		.type	SetAnalogRoutingPumps, %function
 566              	SetAnalogRoutingPumps:
 567              	.LFB7:
 304:Generated_Source\PSoC5/cyfitter_cfg.c **** 
 305:Generated_Source\PSoC5/cyfitter_cfg.c **** 
 306:Generated_Source\PSoC5/cyfitter_cfg.c **** /*******************************************************************************
 307:Generated_Source\PSoC5/cyfitter_cfg.c **** * Function Name: SetAnalogRoutingPumps
 308:Generated_Source\PSoC5/cyfitter_cfg.c **** ********************************************************************************
 309:Generated_Source\PSoC5/cyfitter_cfg.c **** *
 310:Generated_Source\PSoC5/cyfitter_cfg.c **** * Summary:
 311:Generated_Source\PSoC5/cyfitter_cfg.c **** * Enables or disables the analog pumps feeding analog routing switches.
 312:Generated_Source\PSoC5/cyfitter_cfg.c **** * Intended to be called at startup, based on the Vdda system configuration;
 313:Generated_Source\PSoC5/cyfitter_cfg.c **** * may be called during operation when the user informs us that the Vdda voltage
 314:Generated_Source\PSoC5/cyfitter_cfg.c **** * crossed the pump threshold.
 315:Generated_Source\PSoC5/cyfitter_cfg.c **** *
 316:Generated_Source\PSoC5/cyfitter_cfg.c **** * Parameters:
 317:Generated_Source\PSoC5/cyfitter_cfg.c **** *  enabled - 1 to enable the pumps, 0 to disable the pumps
 318:Generated_Source\PSoC5/cyfitter_cfg.c **** *
 319:Generated_Source\PSoC5/cyfitter_cfg.c **** * Return:
 320:Generated_Source\PSoC5/cyfitter_cfg.c **** *  void
 321:Generated_Source\PSoC5/cyfitter_cfg.c **** *
 322:Generated_Source\PSoC5/cyfitter_cfg.c **** *******************************************************************************/
 323:Generated_Source\PSoC5/cyfitter_cfg.c **** void SetAnalogRoutingPumps(uint8 enabled)
 324:Generated_Source\PSoC5/cyfitter_cfg.c **** {
 568              		.loc 1 324 0
 569              		.cfi_startproc
 570              		@ args = 0, pretend = 0, frame = 16
 571              		@ frame_needed = 1, uses_anonymous_args = 0
 572              		@ link register save eliminated.
 573 0000 80B4     		push	{r7}
 574              		.cfi_def_cfa_offset 4
 575              		.cfi_offset 7, -4
 576 0002 85B0     		sub	sp, sp, #20
 577              		.cfi_def_cfa_offset 24
 578 0004 00AF     		add	r7, sp, #0
 579              		.cfi_def_cfa_register 7
 580 0006 0346     		mov	r3, r0
 581 0008 FB71     		strb	r3, [r7, #7]
 325:Generated_Source\PSoC5/cyfitter_cfg.c **** 	uint8 regValue = CY_GET_XTND_REG8((void CYFAR *)CYREG_PUMP_CR0);
ARM GAS  C:\Users\SEBAST~3\AppData\Local\Temp\ccQGNYwU.s 			page 17


 582              		.loc 1 325 0
 583 000a 0B4B     		ldr	r3, .L24
 584 000c 1B78     		ldrb	r3, [r3]
 585 000e FB73     		strb	r3, [r7, #15]
 326:Generated_Source\PSoC5/cyfitter_cfg.c **** 	if (enabled != 0u)
 586              		.loc 1 326 0
 587 0010 FB79     		ldrb	r3, [r7, #7]	@ zero_extendqisi2
 588 0012 002B     		cmp	r3, #0
 589 0014 04D0     		beq	.L22
 327:Generated_Source\PSoC5/cyfitter_cfg.c **** 	{
 328:Generated_Source\PSoC5/cyfitter_cfg.c **** 		regValue |= 0x22u;
 590              		.loc 1 328 0
 591 0016 FB7B     		ldrb	r3, [r7, #15]
 592 0018 43F02203 		orr	r3, r3, #34
 593 001c FB73     		strb	r3, [r7, #15]
 594 001e 03E0     		b	.L23
 595              	.L22:
 329:Generated_Source\PSoC5/cyfitter_cfg.c **** 	}
 330:Generated_Source\PSoC5/cyfitter_cfg.c **** 	else
 331:Generated_Source\PSoC5/cyfitter_cfg.c **** 	{
 332:Generated_Source\PSoC5/cyfitter_cfg.c **** 		regValue &= (uint8)~0x22u;
 596              		.loc 1 332 0
 597 0020 FB7B     		ldrb	r3, [r7, #15]
 598 0022 23F02203 		bic	r3, r3, #34
 599 0026 FB73     		strb	r3, [r7, #15]
 600              	.L23:
 333:Generated_Source\PSoC5/cyfitter_cfg.c **** 	}
 334:Generated_Source\PSoC5/cyfitter_cfg.c **** 	CY_SET_XTND_REG8((void CYFAR *)CYREG_PUMP_CR0, regValue);
 601              		.loc 1 334 0
 602 0028 034A     		ldr	r2, .L24
 603 002a FB7B     		ldrb	r3, [r7, #15]
 604 002c 1370     		strb	r3, [r2]
 335:Generated_Source\PSoC5/cyfitter_cfg.c **** }
 605              		.loc 1 335 0
 606 002e 00BF     		nop
 607 0030 1437     		adds	r7, r7, #20
 608              		.cfi_def_cfa_offset 4
 609 0032 BD46     		mov	sp, r7
 610              		.cfi_def_cfa_register 13
 611              		@ sp needed
 612 0034 80BC     		pop	{r7}
 613              		.cfi_restore 7
 614              		.cfi_def_cfa_offset 0
 615 0036 7047     		bx	lr
 616              	.L25:
 617              		.align	2
 618              	.L24:
 619 0038 76580040 		.word	1073764470
 620              		.cfi_endproc
 621              	.LFE7:
 622              		.size	SetAnalogRoutingPumps, .-SetAnalogRoutingPumps
 623              		.global	ADC_DelSig_1_AMux__addrTable
 624              		.section	.rodata
 625              		.align	2
 626              		.type	ADC_DelSig_1_AMux__addrTable, %object
 627              		.size	ADC_DelSig_1_AMux__addrTable, 8
 628              	ADC_DelSig_1_AMux__addrTable:
ARM GAS  C:\Users\SEBAST~3\AppData\Local\Temp\ccQGNYwU.s 			page 18


 629 0000 035B0040 		.word	1073765123
 630 0004 24430040 		.word	1073759012
 631              		.global	ADC_DelSig_1_AMux__maskTable
 632              		.align	2
 633              		.type	ADC_DelSig_1_AMux__maskTable, %object
 634              		.size	ADC_DelSig_1_AMux__maskTable, 2
 635              	ADC_DelSig_1_AMux__maskTable:
 636 0008 40       		.byte	64
 637 0009 00       		.byte	0
 638              		.section	.text.ADC_DelSig_1_AMux_Set,"ax",%progbits
 639              		.align	2
 640              		.global	ADC_DelSig_1_AMux_Set
 641              		.thumb
 642              		.thumb_func
 643              		.type	ADC_DelSig_1_AMux_Set, %function
 644              	ADC_DelSig_1_AMux_Set:
 645              	.LFB8:
 336:Generated_Source\PSoC5/cyfitter_cfg.c **** 
 337:Generated_Source\PSoC5/cyfitter_cfg.c **** 
 338:Generated_Source\PSoC5/cyfitter_cfg.c **** #define CY_AMUX_UNUSED CYREG_BOOST_SR
 339:Generated_Source\PSoC5/cyfitter_cfg.c **** /* This is an implementation detail of the AMux. Code that depends on it may be
 340:Generated_Source\PSoC5/cyfitter_cfg.c ****    incompatible with other versions of PSoC Creator. */
 341:Generated_Source\PSoC5/cyfitter_cfg.c **** uint8 CYXDATA * const CYCODE ADC_DelSig_1_AMux__addrTable[2] = {
 342:Generated_Source\PSoC5/cyfitter_cfg.c **** 	(uint8 CYXDATA *)CYREG_DSM0_SW3, 
 343:Generated_Source\PSoC5/cyfitter_cfg.c **** 	(uint8 CYXDATA *)CY_AMUX_UNUSED, 
 344:Generated_Source\PSoC5/cyfitter_cfg.c **** };
 345:Generated_Source\PSoC5/cyfitter_cfg.c **** 
 346:Generated_Source\PSoC5/cyfitter_cfg.c **** /* This is an implementation detail of the AMux. Code that depends on it may be
 347:Generated_Source\PSoC5/cyfitter_cfg.c ****    incompatible with other versions of PSoC Creator. */
 348:Generated_Source\PSoC5/cyfitter_cfg.c **** const uint8 CYCODE ADC_DelSig_1_AMux__maskTable[2] = {
 349:Generated_Source\PSoC5/cyfitter_cfg.c **** 	0x40u, 
 350:Generated_Source\PSoC5/cyfitter_cfg.c **** 	0x00u, 
 351:Generated_Source\PSoC5/cyfitter_cfg.c **** };
 352:Generated_Source\PSoC5/cyfitter_cfg.c **** 
 353:Generated_Source\PSoC5/cyfitter_cfg.c **** /*******************************************************************************
 354:Generated_Source\PSoC5/cyfitter_cfg.c **** * Function Name: ADC_DelSig_1_AMux_Set
 355:Generated_Source\PSoC5/cyfitter_cfg.c **** ********************************************************************************
 356:Generated_Source\PSoC5/cyfitter_cfg.c **** * Summary:
 357:Generated_Source\PSoC5/cyfitter_cfg.c **** *  This function is used to set a particular channel as active on the AMux.
 358:Generated_Source\PSoC5/cyfitter_cfg.c **** *
 359:Generated_Source\PSoC5/cyfitter_cfg.c **** * Parameters:  
 360:Generated_Source\PSoC5/cyfitter_cfg.c **** *   channel - The mux channel input to set as active
 361:Generated_Source\PSoC5/cyfitter_cfg.c **** *
 362:Generated_Source\PSoC5/cyfitter_cfg.c **** * Return:
 363:Generated_Source\PSoC5/cyfitter_cfg.c **** *   void
 364:Generated_Source\PSoC5/cyfitter_cfg.c **** *
 365:Generated_Source\PSoC5/cyfitter_cfg.c **** *******************************************************************************/
 366:Generated_Source\PSoC5/cyfitter_cfg.c **** void ADC_DelSig_1_AMux_Set(uint8 channel)
 367:Generated_Source\PSoC5/cyfitter_cfg.c **** {
 646              		.loc 1 367 0
 647              		.cfi_startproc
 648              		@ args = 0, pretend = 0, frame = 8
 649              		@ frame_needed = 1, uses_anonymous_args = 0
 650              		@ link register save eliminated.
 651 0000 80B4     		push	{r7}
 652              		.cfi_def_cfa_offset 4
 653              		.cfi_offset 7, -4
ARM GAS  C:\Users\SEBAST~3\AppData\Local\Temp\ccQGNYwU.s 			page 19


 654 0002 83B0     		sub	sp, sp, #12
 655              		.cfi_def_cfa_offset 16
 656 0004 00AF     		add	r7, sp, #0
 657              		.cfi_def_cfa_register 7
 658 0006 0346     		mov	r3, r0
 659 0008 FB71     		strb	r3, [r7, #7]
 368:Generated_Source\PSoC5/cyfitter_cfg.c **** 	if (channel < 2)
 660              		.loc 1 368 0
 661 000a FB79     		ldrb	r3, [r7, #7]	@ zero_extendqisi2
 662 000c 012B     		cmp	r3, #1
 663 000e 0ED8     		bhi	.L28
 369:Generated_Source\PSoC5/cyfitter_cfg.c **** 	{
 370:Generated_Source\PSoC5/cyfitter_cfg.c **** 		*ADC_DelSig_1_AMux__addrTable[channel] |= ADC_DelSig_1_AMux__maskTable[channel];
 664              		.loc 1 370 0
 665 0010 FB79     		ldrb	r3, [r7, #7]	@ zero_extendqisi2
 666 0012 094A     		ldr	r2, .L29
 667 0014 52F82330 		ldr	r3, [r2, r3, lsl #2]
 668 0018 FA79     		ldrb	r2, [r7, #7]	@ zero_extendqisi2
 669 001a 0749     		ldr	r1, .L29
 670 001c 51F82220 		ldr	r2, [r1, r2, lsl #2]
 671 0020 1178     		ldrb	r1, [r2]	@ zero_extendqisi2
 672 0022 FA79     		ldrb	r2, [r7, #7]	@ zero_extendqisi2
 673 0024 0548     		ldr	r0, .L29+4
 674 0026 825C     		ldrb	r2, [r0, r2]	@ zero_extendqisi2
 675 0028 0A43     		orrs	r2, r2, r1
 676 002a D2B2     		uxtb	r2, r2
 677 002c 1A70     		strb	r2, [r3]
 678              	.L28:
 371:Generated_Source\PSoC5/cyfitter_cfg.c **** 	}
 372:Generated_Source\PSoC5/cyfitter_cfg.c **** }
 679              		.loc 1 372 0
 680 002e 00BF     		nop
 681 0030 0C37     		adds	r7, r7, #12
 682              		.cfi_def_cfa_offset 4
 683 0032 BD46     		mov	sp, r7
 684              		.cfi_def_cfa_register 13
 685              		@ sp needed
 686 0034 80BC     		pop	{r7}
 687              		.cfi_restore 7
 688              		.cfi_def_cfa_offset 0
 689 0036 7047     		bx	lr
 690              	.L30:
 691              		.align	2
 692              	.L29:
 693 0038 00000000 		.word	ADC_DelSig_1_AMux__addrTable
 694 003c 00000000 		.word	ADC_DelSig_1_AMux__maskTable
 695              		.cfi_endproc
 696              	.LFE8:
 697              		.size	ADC_DelSig_1_AMux_Set, .-ADC_DelSig_1_AMux_Set
 698              		.section	.text.ADC_DelSig_1_AMux_Unset,"ax",%progbits
 699              		.align	2
 700              		.global	ADC_DelSig_1_AMux_Unset
 701              		.thumb
 702              		.thumb_func
 703              		.type	ADC_DelSig_1_AMux_Unset, %function
 704              	ADC_DelSig_1_AMux_Unset:
 705              	.LFB9:
ARM GAS  C:\Users\SEBAST~3\AppData\Local\Temp\ccQGNYwU.s 			page 20


 373:Generated_Source\PSoC5/cyfitter_cfg.c **** 
 374:Generated_Source\PSoC5/cyfitter_cfg.c **** /*******************************************************************************
 375:Generated_Source\PSoC5/cyfitter_cfg.c **** * Function Name: ADC_DelSig_1_AMux_Unset
 376:Generated_Source\PSoC5/cyfitter_cfg.c **** ********************************************************************************
 377:Generated_Source\PSoC5/cyfitter_cfg.c **** * Summary:
 378:Generated_Source\PSoC5/cyfitter_cfg.c **** *  This function is used to clear a particular channel from being active on the
 379:Generated_Source\PSoC5/cyfitter_cfg.c **** *  AMux.
 380:Generated_Source\PSoC5/cyfitter_cfg.c **** *
 381:Generated_Source\PSoC5/cyfitter_cfg.c **** * Parameters:  
 382:Generated_Source\PSoC5/cyfitter_cfg.c **** *   channel - The mux channel input to mark inactive
 383:Generated_Source\PSoC5/cyfitter_cfg.c **** *
 384:Generated_Source\PSoC5/cyfitter_cfg.c **** * Return:
 385:Generated_Source\PSoC5/cyfitter_cfg.c **** *   void
 386:Generated_Source\PSoC5/cyfitter_cfg.c **** *
 387:Generated_Source\PSoC5/cyfitter_cfg.c **** *******************************************************************************/
 388:Generated_Source\PSoC5/cyfitter_cfg.c **** void ADC_DelSig_1_AMux_Unset(uint8 channel)
 389:Generated_Source\PSoC5/cyfitter_cfg.c **** {
 706              		.loc 1 389 0
 707              		.cfi_startproc
 708              		@ args = 0, pretend = 0, frame = 8
 709              		@ frame_needed = 1, uses_anonymous_args = 0
 710              		@ link register save eliminated.
 711 0000 80B4     		push	{r7}
 712              		.cfi_def_cfa_offset 4
 713              		.cfi_offset 7, -4
 714 0002 83B0     		sub	sp, sp, #12
 715              		.cfi_def_cfa_offset 16
 716 0004 00AF     		add	r7, sp, #0
 717              		.cfi_def_cfa_register 7
 718 0006 0346     		mov	r3, r0
 719 0008 FB71     		strb	r3, [r7, #7]
 390:Generated_Source\PSoC5/cyfitter_cfg.c **** 	if (channel < 2)
 720              		.loc 1 390 0
 721 000a FB79     		ldrb	r3, [r7, #7]	@ zero_extendqisi2
 722 000c 012B     		cmp	r3, #1
 723 000e 10D8     		bhi	.L33
 391:Generated_Source\PSoC5/cyfitter_cfg.c **** 	{
 392:Generated_Source\PSoC5/cyfitter_cfg.c **** 		*ADC_DelSig_1_AMux__addrTable[channel] &= (uint8)~ADC_DelSig_1_AMux__maskTable[channel];
 724              		.loc 1 392 0
 725 0010 FB79     		ldrb	r3, [r7, #7]	@ zero_extendqisi2
 726 0012 0A4A     		ldr	r2, .L34
 727 0014 52F82330 		ldr	r3, [r2, r3, lsl #2]
 728 0018 FA79     		ldrb	r2, [r7, #7]	@ zero_extendqisi2
 729 001a 0849     		ldr	r1, .L34
 730 001c 51F82220 		ldr	r2, [r1, r2, lsl #2]
 731 0020 1178     		ldrb	r1, [r2]	@ zero_extendqisi2
 732 0022 FA79     		ldrb	r2, [r7, #7]	@ zero_extendqisi2
 733 0024 0648     		ldr	r0, .L34+4
 734 0026 825C     		ldrb	r2, [r0, r2]	@ zero_extendqisi2
 735 0028 D243     		mvns	r2, r2
 736 002a D2B2     		uxtb	r2, r2
 737 002c 0A40     		ands	r2, r2, r1
 738 002e D2B2     		uxtb	r2, r2
 739 0030 1A70     		strb	r2, [r3]
 740              	.L33:
 393:Generated_Source\PSoC5/cyfitter_cfg.c **** 	}
 394:Generated_Source\PSoC5/cyfitter_cfg.c **** }
ARM GAS  C:\Users\SEBAST~3\AppData\Local\Temp\ccQGNYwU.s 			page 21


 741              		.loc 1 394 0
 742 0032 00BF     		nop
 743 0034 0C37     		adds	r7, r7, #12
 744              		.cfi_def_cfa_offset 4
 745 0036 BD46     		mov	sp, r7
 746              		.cfi_def_cfa_register 13
 747              		@ sp needed
 748 0038 80BC     		pop	{r7}
 749              		.cfi_restore 7
 750              		.cfi_def_cfa_offset 0
 751 003a 7047     		bx	lr
 752              	.L35:
 753              		.align	2
 754              	.L34:
 755 003c 00000000 		.word	ADC_DelSig_1_AMux__addrTable
 756 0040 00000000 		.word	ADC_DelSig_1_AMux__maskTable
 757              		.cfi_endproc
 758              	.LFE9:
 759              		.size	ADC_DelSig_1_AMux_Unset, .-ADC_DelSig_1_AMux_Unset
 760              		.section	.text.cyfitter_cfg,"ax",%progbits
 761              		.align	2
 762              		.global	cyfitter_cfg
 763              		.thumb
 764              		.thumb_func
 765              		.type	cyfitter_cfg, %function
 766              	cyfitter_cfg:
 767              	.LFB10:
 395:Generated_Source\PSoC5/cyfitter_cfg.c **** 
 396:Generated_Source\PSoC5/cyfitter_cfg.c **** 
 397:Generated_Source\PSoC5/cyfitter_cfg.c **** 
 398:Generated_Source\PSoC5/cyfitter_cfg.c **** /*******************************************************************************
 399:Generated_Source\PSoC5/cyfitter_cfg.c **** * Function Name: cyfitter_cfg
 400:Generated_Source\PSoC5/cyfitter_cfg.c **** ********************************************************************************
 401:Generated_Source\PSoC5/cyfitter_cfg.c **** * Summary:
 402:Generated_Source\PSoC5/cyfitter_cfg.c **** *  This function is called by the start-up code for the selected device. It
 403:Generated_Source\PSoC5/cyfitter_cfg.c **** *  performs all of the necessary device configuration based on the design
 404:Generated_Source\PSoC5/cyfitter_cfg.c **** *  settings.  This includes settings from the Design Wide Resources (DWR) such
 405:Generated_Source\PSoC5/cyfitter_cfg.c **** *  as Clocks and Pins as well as any component configuration that is necessary.
 406:Generated_Source\PSoC5/cyfitter_cfg.c **** *
 407:Generated_Source\PSoC5/cyfitter_cfg.c **** * Parameters:
 408:Generated_Source\PSoC5/cyfitter_cfg.c **** *   void
 409:Generated_Source\PSoC5/cyfitter_cfg.c **** *
 410:Generated_Source\PSoC5/cyfitter_cfg.c **** * Return:
 411:Generated_Source\PSoC5/cyfitter_cfg.c **** *   void
 412:Generated_Source\PSoC5/cyfitter_cfg.c **** *
 413:Generated_Source\PSoC5/cyfitter_cfg.c **** *******************************************************************************/
 414:Generated_Source\PSoC5/cyfitter_cfg.c **** 
 415:Generated_Source\PSoC5/cyfitter_cfg.c **** void cyfitter_cfg(void)
 416:Generated_Source\PSoC5/cyfitter_cfg.c **** {
 768              		.loc 1 416 0
 769              		.cfi_startproc
 770              		@ args = 0, pretend = 0, frame = 8
 771              		@ frame_needed = 1, uses_anonymous_args = 0
 772 0000 80B5     		push	{r7, lr}
 773              		.cfi_def_cfa_offset 8
 774              		.cfi_offset 7, -8
 775              		.cfi_offset 14, -4
ARM GAS  C:\Users\SEBAST~3\AppData\Local\Temp\ccQGNYwU.s 			page 22


 776 0002 82B0     		sub	sp, sp, #8
 777              		.cfi_def_cfa_offset 16
 778 0004 00AF     		add	r7, sp, #0
 779              		.cfi_def_cfa_register 7
 417:Generated_Source\PSoC5/cyfitter_cfg.c **** 	/* IOPINS0_0 Address: CYREG_PRT0_DM0 Size (bytes): 8 */
 418:Generated_Source\PSoC5/cyfitter_cfg.c **** 	static const uint8 CYCODE BS_IOPINS0_0_VAL[] = {
 419:Generated_Source\PSoC5/cyfitter_cfg.c **** 		0x00u, 0x00u, 0x00u, 0x00u, 0x00u, 0x00u, 0x01u, 0x00u};
 420:Generated_Source\PSoC5/cyfitter_cfg.c **** 
 421:Generated_Source\PSoC5/cyfitter_cfg.c **** 	/* IOPINS0_8 Address: CYREG_PRT15_DR Size (bytes): 10 */
 422:Generated_Source\PSoC5/cyfitter_cfg.c **** 	static const uint8 CYCODE BS_IOPINS0_8_VAL[] = {
 423:Generated_Source\PSoC5/cyfitter_cfg.c **** 		0x40u, 0x00u, 0x00u, 0x00u, 0x00u, 0x00u, 0x00u, 0x00u, 0xC0u, 0x00u};
 424:Generated_Source\PSoC5/cyfitter_cfg.c **** 
 425:Generated_Source\PSoC5/cyfitter_cfg.c **** 	/* IOPINS0_1 Address: CYREG_PRT1_DR Size (bytes): 10 */
 426:Generated_Source\PSoC5/cyfitter_cfg.c **** 	static const uint8 CYCODE BS_IOPINS0_1_VAL[] = {
 427:Generated_Source\PSoC5/cyfitter_cfg.c **** 		0x00u, 0x00u, 0xC0u, 0xCFu, 0x0Bu, 0x00u, 0x00u, 0x00u, 0x00u, 0x00u};
 428:Generated_Source\PSoC5/cyfitter_cfg.c **** 
 429:Generated_Source\PSoC5/cyfitter_cfg.c **** 	/* IOPINS0_2 Address: CYREG_PRT2_DM0 Size (bytes): 8 */
 430:Generated_Source\PSoC5/cyfitter_cfg.c **** 	static const uint8 CYCODE BS_IOPINS0_2_VAL[] = {
 431:Generated_Source\PSoC5/cyfitter_cfg.c **** 		0x00u, 0x7Fu, 0x7Fu, 0x00u, 0x00u, 0x00u, 0x00u, 0x00u};
 432:Generated_Source\PSoC5/cyfitter_cfg.c **** 
 433:Generated_Source\PSoC5/cyfitter_cfg.c **** 	/* IOPINS0_4 Address: CYREG_PRT4_DM0 Size (bytes): 8 */
 434:Generated_Source\PSoC5/cyfitter_cfg.c **** 	static const uint8 CYCODE BS_IOPINS0_4_VAL[] = {
 435:Generated_Source\PSoC5/cyfitter_cfg.c **** 		0x0Au, 0x00u, 0x00u, 0x00u, 0x00u, 0x00u, 0x00u, 0x00u};
 436:Generated_Source\PSoC5/cyfitter_cfg.c **** 
 437:Generated_Source\PSoC5/cyfitter_cfg.c **** 	/* IOPINS0_5 Address: CYREG_PRT5_DM0 Size (bytes): 8 */
 438:Generated_Source\PSoC5/cyfitter_cfg.c **** 	static const uint8 CYCODE BS_IOPINS0_5_VAL[] = {
 439:Generated_Source\PSoC5/cyfitter_cfg.c **** 		0x80u, 0x8Au, 0x0Au, 0x00u, 0x0Au, 0x00u, 0x00u, 0x00u};
 440:Generated_Source\PSoC5/cyfitter_cfg.c **** 
 441:Generated_Source\PSoC5/cyfitter_cfg.c **** #ifdef CYGlobalIntDisable
 442:Generated_Source\PSoC5/cyfitter_cfg.c **** 	/* Disable interrupts by default. Let user enable if/when they want. */
 443:Generated_Source\PSoC5/cyfitter_cfg.c **** 	CYGlobalIntDisable
 780              		.loc 1 443 0
 781              		.syntax unified
 782              	@ 443 "Generated_Source\PSoC5\cyfitter_cfg.c" 1
 783 0006 72B6     		CPSID   i
 784              	@ 0 "" 2
 444:Generated_Source\PSoC5/cyfitter_cfg.c **** #endif
 445:Generated_Source\PSoC5/cyfitter_cfg.c **** 
 446:Generated_Source\PSoC5/cyfitter_cfg.c **** 
 447:Generated_Source\PSoC5/cyfitter_cfg.c **** 	/* Set Flash Cycles based on max possible frequency in case a glitch occurs during ClockSetup(). *
 448:Generated_Source\PSoC5/cyfitter_cfg.c **** 	CY_SET_XTND_REG8((void CYFAR *)(CYREG_CACHE_CC_CTL), (((CYDEV_INSTRUCT_CACHE_ENABLED) != 0) ? 0x61
 785              		.loc 1 448 0
 786              		.thumb
 787              		.syntax unified
 788 0008 434B     		ldr	r3, .L39
 789 000a 6022     		movs	r2, #96
 790 000c 1A70     		strb	r2, [r3]
 449:Generated_Source\PSoC5/cyfitter_cfg.c **** 	/* Setup clocks based on selections from Clock DWR */
 450:Generated_Source\PSoC5/cyfitter_cfg.c **** 	ClockSetup();
 791              		.loc 1 450 0
 792 000e FFF7FEFF 		bl	ClockSetup
 451:Generated_Source\PSoC5/cyfitter_cfg.c **** 	/* Set Flash Cycles based on newly configured 64.00MHz Bus Clock. */
 452:Generated_Source\PSoC5/cyfitter_cfg.c **** 	CY_SET_XTND_REG8((void CYFAR *)(CYREG_CACHE_CC_CTL), (((CYDEV_INSTRUCT_CACHE_ENABLED) != 0) ? 0x01
 793              		.loc 1 452 0
 794 0012 414B     		ldr	r3, .L39
 795 0014 0022     		movs	r2, #0
 796 0016 1A70     		strb	r2, [r3]
ARM GAS  C:\Users\SEBAST~3\AppData\Local\Temp\ccQGNYwU.s 			page 23


 453:Generated_Source\PSoC5/cyfitter_cfg.c **** 	/* Enable/Disable Debug functionality based on settings from System DWR */
 454:Generated_Source\PSoC5/cyfitter_cfg.c **** 	CY_SET_XTND_REG8((void CYFAR *)CYREG_MLOGIC_DEBUG, (CY_GET_XTND_REG8((void CYFAR *)CYREG_MLOGIC_DE
 797              		.loc 1 454 0
 798 0018 404A     		ldr	r2, .L39+4
 799 001a 404B     		ldr	r3, .L39+4
 800 001c 1B78     		ldrb	r3, [r3]
 801 001e DBB2     		uxtb	r3, r3
 802 0020 43F00403 		orr	r3, r3, #4
 803 0024 DBB2     		uxtb	r3, r3
 804 0026 1370     		strb	r3, [r2]
 805              	.LBB3:
 455:Generated_Source\PSoC5/cyfitter_cfg.c **** 
 456:Generated_Source\PSoC5/cyfitter_cfg.c **** 	{
 457:Generated_Source\PSoC5/cyfitter_cfg.c **** 		static const uint32 CYCODE cy_cfg_addr_table[] = {
 458:Generated_Source\PSoC5/cyfitter_cfg.c **** 			0x40004501u, /* Base address: 0x40004500 Count: 1 */
 459:Generated_Source\PSoC5/cyfitter_cfg.c **** 			0x40005202u, /* Base address: 0x40005200 Count: 2 */
 460:Generated_Source\PSoC5/cyfitter_cfg.c **** 			0x40006403u, /* Base address: 0x40006400 Count: 3 */
 461:Generated_Source\PSoC5/cyfitter_cfg.c **** 			0x40006503u, /* Base address: 0x40006500 Count: 3 */
 462:Generated_Source\PSoC5/cyfitter_cfg.c **** 			0x40010301u, /* Base address: 0x40010300 Count: 1 */
 463:Generated_Source\PSoC5/cyfitter_cfg.c **** 			0x40010853u, /* Base address: 0x40010800 Count: 83 */
 464:Generated_Source\PSoC5/cyfitter_cfg.c **** 			0x40010939u, /* Base address: 0x40010900 Count: 57 */
 465:Generated_Source\PSoC5/cyfitter_cfg.c **** 			0x40010A61u, /* Base address: 0x40010A00 Count: 97 */
 466:Generated_Source\PSoC5/cyfitter_cfg.c **** 			0x40010B40u, /* Base address: 0x40010B00 Count: 64 */
 467:Generated_Source\PSoC5/cyfitter_cfg.c **** 			0x40010C3Bu, /* Base address: 0x40010C00 Count: 59 */
 468:Generated_Source\PSoC5/cyfitter_cfg.c **** 			0x40010D33u, /* Base address: 0x40010D00 Count: 51 */
 469:Generated_Source\PSoC5/cyfitter_cfg.c **** 			0x40011501u, /* Base address: 0x40011500 Count: 1 */
 470:Generated_Source\PSoC5/cyfitter_cfg.c **** 			0x40011703u, /* Base address: 0x40011700 Count: 3 */
 471:Generated_Source\PSoC5/cyfitter_cfg.c **** 			0x40011852u, /* Base address: 0x40011800 Count: 82 */
 472:Generated_Source\PSoC5/cyfitter_cfg.c **** 			0x4001193Eu, /* Base address: 0x40011900 Count: 62 */
 473:Generated_Source\PSoC5/cyfitter_cfg.c **** 			0x40011A5Bu, /* Base address: 0x40011A00 Count: 91 */
 474:Generated_Source\PSoC5/cyfitter_cfg.c **** 			0x40011B3Cu, /* Base address: 0x40011B00 Count: 60 */
 475:Generated_Source\PSoC5/cyfitter_cfg.c **** 			0x40014006u, /* Base address: 0x40014000 Count: 6 */
 476:Generated_Source\PSoC5/cyfitter_cfg.c **** 			0x40014105u, /* Base address: 0x40014100 Count: 5 */
 477:Generated_Source\PSoC5/cyfitter_cfg.c **** 			0x40014204u, /* Base address: 0x40014200 Count: 4 */
 478:Generated_Source\PSoC5/cyfitter_cfg.c **** 			0x40014304u, /* Base address: 0x40014300 Count: 4 */
 479:Generated_Source\PSoC5/cyfitter_cfg.c **** 			0x40014402u, /* Base address: 0x40014400 Count: 2 */
 480:Generated_Source\PSoC5/cyfitter_cfg.c **** 			0x40014501u, /* Base address: 0x40014500 Count: 1 */
 481:Generated_Source\PSoC5/cyfitter_cfg.c **** 			0x40014604u, /* Base address: 0x40014600 Count: 4 */
 482:Generated_Source\PSoC5/cyfitter_cfg.c **** 			0x4001470Au, /* Base address: 0x40014700 Count: 10 */
 483:Generated_Source\PSoC5/cyfitter_cfg.c **** 			0x40014808u, /* Base address: 0x40014800 Count: 8 */
 484:Generated_Source\PSoC5/cyfitter_cfg.c **** 			0x40014901u, /* Base address: 0x40014900 Count: 1 */
 485:Generated_Source\PSoC5/cyfitter_cfg.c **** 			0x40014C07u, /* Base address: 0x40014C00 Count: 7 */
 486:Generated_Source\PSoC5/cyfitter_cfg.c **** 			0x40014D0Eu, /* Base address: 0x40014D00 Count: 14 */
 487:Generated_Source\PSoC5/cyfitter_cfg.c **** 			0x40015005u, /* Base address: 0x40015000 Count: 5 */
 488:Generated_Source\PSoC5/cyfitter_cfg.c **** 			0x40015101u, /* Base address: 0x40015100 Count: 1 */
 489:Generated_Source\PSoC5/cyfitter_cfg.c **** 		};
 490:Generated_Source\PSoC5/cyfitter_cfg.c **** 
 491:Generated_Source\PSoC5/cyfitter_cfg.c **** 		static const cy_cfg_addrvalue_t CYCODE cy_cfg_data_table[] = {
 492:Generated_Source\PSoC5/cyfitter_cfg.c **** 			{0x7Eu, 0x02u},
 493:Generated_Source\PSoC5/cyfitter_cfg.c **** 			{0x29u, 0x08u},
 494:Generated_Source\PSoC5/cyfitter_cfg.c **** 			{0x7Cu, 0x40u},
 495:Generated_Source\PSoC5/cyfitter_cfg.c **** 			{0x89u, 0x0Du},
 496:Generated_Source\PSoC5/cyfitter_cfg.c **** 			{0x8Cu, 0x6Fu},
 497:Generated_Source\PSoC5/cyfitter_cfg.c **** 			{0x8Du, 0x0Fu},
 498:Generated_Source\PSoC5/cyfitter_cfg.c **** 			{0x88u, 0x0Du},
 499:Generated_Source\PSoC5/cyfitter_cfg.c **** 			{0x8Au, 0x0Du},
 500:Generated_Source\PSoC5/cyfitter_cfg.c **** 			{0x8Bu, 0x0Du},
ARM GAS  C:\Users\SEBAST~3\AppData\Local\Temp\ccQGNYwU.s 			page 24


 501:Generated_Source\PSoC5/cyfitter_cfg.c **** 			{0xECu, 0x20u},
 502:Generated_Source\PSoC5/cyfitter_cfg.c **** 			{0x00u, 0x96u},
 503:Generated_Source\PSoC5/cyfitter_cfg.c **** 			{0x02u, 0x68u},
 504:Generated_Source\PSoC5/cyfitter_cfg.c **** 			{0x04u, 0x7Fu},
 505:Generated_Source\PSoC5/cyfitter_cfg.c **** 			{0x05u, 0x01u},
 506:Generated_Source\PSoC5/cyfitter_cfg.c **** 			{0x08u, 0xC5u},
 507:Generated_Source\PSoC5/cyfitter_cfg.c **** 			{0x09u, 0x04u},
 508:Generated_Source\PSoC5/cyfitter_cfg.c **** 			{0x0Au, 0x3Au},
 509:Generated_Source\PSoC5/cyfitter_cfg.c **** 			{0x0Bu, 0x08u},
 510:Generated_Source\PSoC5/cyfitter_cfg.c **** 			{0x0Du, 0x04u},
 511:Generated_Source\PSoC5/cyfitter_cfg.c **** 			{0x0Fu, 0x08u},
 512:Generated_Source\PSoC5/cyfitter_cfg.c **** 			{0x13u, 0x01u},
 513:Generated_Source\PSoC5/cyfitter_cfg.c **** 			{0x14u, 0xFEu},
 514:Generated_Source\PSoC5/cyfitter_cfg.c **** 			{0x15u, 0x01u},
 515:Generated_Source\PSoC5/cyfitter_cfg.c **** 			{0x16u, 0x01u},
 516:Generated_Source\PSoC5/cyfitter_cfg.c **** 			{0x18u, 0xA3u},
 517:Generated_Source\PSoC5/cyfitter_cfg.c **** 			{0x19u, 0x04u},
 518:Generated_Source\PSoC5/cyfitter_cfg.c **** 			{0x1Au, 0x5Cu},
 519:Generated_Source\PSoC5/cyfitter_cfg.c **** 			{0x1Bu, 0x28u},
 520:Generated_Source\PSoC5/cyfitter_cfg.c **** 			{0x23u, 0x02u},
 521:Generated_Source\PSoC5/cyfitter_cfg.c **** 			{0x24u, 0x0Eu},
 522:Generated_Source\PSoC5/cyfitter_cfg.c **** 			{0x25u, 0x01u},
 523:Generated_Source\PSoC5/cyfitter_cfg.c **** 			{0x26u, 0xF0u},
 524:Generated_Source\PSoC5/cyfitter_cfg.c **** 			{0x29u, 0x09u},
 525:Generated_Source\PSoC5/cyfitter_cfg.c **** 			{0x2Au, 0x01u},
 526:Generated_Source\PSoC5/cyfitter_cfg.c **** 			{0x2Bu, 0x04u},
 527:Generated_Source\PSoC5/cyfitter_cfg.c **** 			{0x2Fu, 0x10u},
 528:Generated_Source\PSoC5/cyfitter_cfg.c **** 			{0x31u, 0x20u},
 529:Generated_Source\PSoC5/cyfitter_cfg.c **** 			{0x33u, 0x03u},
 530:Generated_Source\PSoC5/cyfitter_cfg.c **** 			{0x35u, 0x0Cu},
 531:Generated_Source\PSoC5/cyfitter_cfg.c **** 			{0x36u, 0xFFu},
 532:Generated_Source\PSoC5/cyfitter_cfg.c **** 			{0x37u, 0x10u},
 533:Generated_Source\PSoC5/cyfitter_cfg.c **** 			{0x3Bu, 0x20u},
 534:Generated_Source\PSoC5/cyfitter_cfg.c **** 			{0x3Eu, 0x40u},
 535:Generated_Source\PSoC5/cyfitter_cfg.c **** 			{0x52u, 0x80u},
 536:Generated_Source\PSoC5/cyfitter_cfg.c **** 			{0x58u, 0x04u},
 537:Generated_Source\PSoC5/cyfitter_cfg.c **** 			{0x59u, 0x04u},
 538:Generated_Source\PSoC5/cyfitter_cfg.c **** 			{0x5Bu, 0x04u},
 539:Generated_Source\PSoC5/cyfitter_cfg.c **** 			{0x5Cu, 0x30u},
 540:Generated_Source\PSoC5/cyfitter_cfg.c **** 			{0x5Du, 0x40u},
 541:Generated_Source\PSoC5/cyfitter_cfg.c **** 			{0x5Fu, 0x01u},
 542:Generated_Source\PSoC5/cyfitter_cfg.c **** 			{0x8Fu, 0x01u},
 543:Generated_Source\PSoC5/cyfitter_cfg.c **** 			{0x91u, 0x01u},
 544:Generated_Source\PSoC5/cyfitter_cfg.c **** 			{0x92u, 0x02u},
 545:Generated_Source\PSoC5/cyfitter_cfg.c **** 			{0x9Eu, 0x04u},
 546:Generated_Source\PSoC5/cyfitter_cfg.c **** 			{0xA2u, 0x01u},
 547:Generated_Source\PSoC5/cyfitter_cfg.c **** 			{0xA6u, 0x04u},
 548:Generated_Source\PSoC5/cyfitter_cfg.c **** 			{0xAFu, 0x02u},
 549:Generated_Source\PSoC5/cyfitter_cfg.c **** 			{0xB0u, 0x01u},
 550:Generated_Source\PSoC5/cyfitter_cfg.c **** 			{0xB3u, 0x02u},
 551:Generated_Source\PSoC5/cyfitter_cfg.c **** 			{0xB4u, 0x04u},
 552:Generated_Source\PSoC5/cyfitter_cfg.c **** 			{0xB6u, 0x02u},
 553:Generated_Source\PSoC5/cyfitter_cfg.c **** 			{0xB7u, 0x01u},
 554:Generated_Source\PSoC5/cyfitter_cfg.c **** 			{0xBEu, 0x10u},
 555:Generated_Source\PSoC5/cyfitter_cfg.c **** 			{0xC0u, 0x10u},
 556:Generated_Source\PSoC5/cyfitter_cfg.c **** 			{0xC1u, 0x06u},
 557:Generated_Source\PSoC5/cyfitter_cfg.c **** 			{0xC5u, 0xD2u},
ARM GAS  C:\Users\SEBAST~3\AppData\Local\Temp\ccQGNYwU.s 			page 25


 558:Generated_Source\PSoC5/cyfitter_cfg.c **** 			{0xC6u, 0x01u},
 559:Generated_Source\PSoC5/cyfitter_cfg.c **** 			{0xC7u, 0x02u},
 560:Generated_Source\PSoC5/cyfitter_cfg.c **** 			{0xC8u, 0x17u},
 561:Generated_Source\PSoC5/cyfitter_cfg.c **** 			{0xC9u, 0xFFu},
 562:Generated_Source\PSoC5/cyfitter_cfg.c **** 			{0xCAu, 0xFFu},
 563:Generated_Source\PSoC5/cyfitter_cfg.c **** 			{0xCBu, 0xFFu},
 564:Generated_Source\PSoC5/cyfitter_cfg.c **** 			{0xCDu, 0xA0u},
 565:Generated_Source\PSoC5/cyfitter_cfg.c **** 			{0xCFu, 0x04u},
 566:Generated_Source\PSoC5/cyfitter_cfg.c **** 			{0xD0u, 0x18u},
 567:Generated_Source\PSoC5/cyfitter_cfg.c **** 			{0xD2u, 0x80u},
 568:Generated_Source\PSoC5/cyfitter_cfg.c **** 			{0xD4u, 0x05u},
 569:Generated_Source\PSoC5/cyfitter_cfg.c **** 			{0xD8u, 0x04u},
 570:Generated_Source\PSoC5/cyfitter_cfg.c **** 			{0xD9u, 0x04u},
 571:Generated_Source\PSoC5/cyfitter_cfg.c **** 			{0xDAu, 0x04u},
 572:Generated_Source\PSoC5/cyfitter_cfg.c **** 			{0xDBu, 0x04u},
 573:Generated_Source\PSoC5/cyfitter_cfg.c **** 			{0xDCu, 0x44u},
 574:Generated_Source\PSoC5/cyfitter_cfg.c **** 			{0xDDu, 0x44u},
 575:Generated_Source\PSoC5/cyfitter_cfg.c **** 			{0xDFu, 0x01u},
 576:Generated_Source\PSoC5/cyfitter_cfg.c **** 			{0xE0u, 0x40u},
 577:Generated_Source\PSoC5/cyfitter_cfg.c **** 			{0xE2u, 0xC0u},
 578:Generated_Source\PSoC5/cyfitter_cfg.c **** 			{0xE4u, 0x40u},
 579:Generated_Source\PSoC5/cyfitter_cfg.c **** 			{0xE5u, 0x40u},
 580:Generated_Source\PSoC5/cyfitter_cfg.c **** 			{0xE6u, 0xC0u},
 581:Generated_Source\PSoC5/cyfitter_cfg.c **** 			{0xE8u, 0xC0u},
 582:Generated_Source\PSoC5/cyfitter_cfg.c **** 			{0xEAu, 0xC0u},
 583:Generated_Source\PSoC5/cyfitter_cfg.c **** 			{0xECu, 0xC0u},
 584:Generated_Source\PSoC5/cyfitter_cfg.c **** 			{0xEEu, 0xC0u},
 585:Generated_Source\PSoC5/cyfitter_cfg.c **** 			{0x04u, 0x24u},
 586:Generated_Source\PSoC5/cyfitter_cfg.c **** 			{0x05u, 0x02u},
 587:Generated_Source\PSoC5/cyfitter_cfg.c **** 			{0x07u, 0x08u},
 588:Generated_Source\PSoC5/cyfitter_cfg.c **** 			{0x09u, 0x02u},
 589:Generated_Source\PSoC5/cyfitter_cfg.c **** 			{0x0Au, 0x01u},
 590:Generated_Source\PSoC5/cyfitter_cfg.c **** 			{0x0Eu, 0x20u},
 591:Generated_Source\PSoC5/cyfitter_cfg.c **** 			{0x0Fu, 0x04u},
 592:Generated_Source\PSoC5/cyfitter_cfg.c **** 			{0x10u, 0xA0u},
 593:Generated_Source\PSoC5/cyfitter_cfg.c **** 			{0x16u, 0x20u},
 594:Generated_Source\PSoC5/cyfitter_cfg.c **** 			{0x17u, 0x14u},
 595:Generated_Source\PSoC5/cyfitter_cfg.c **** 			{0x19u, 0x80u},
 596:Generated_Source\PSoC5/cyfitter_cfg.c **** 			{0x1Au, 0x09u},
 597:Generated_Source\PSoC5/cyfitter_cfg.c **** 			{0x1Bu, 0x02u},
 598:Generated_Source\PSoC5/cyfitter_cfg.c **** 			{0x1Fu, 0x80u},
 599:Generated_Source\PSoC5/cyfitter_cfg.c **** 			{0x21u, 0x04u},
 600:Generated_Source\PSoC5/cyfitter_cfg.c **** 			{0x22u, 0x40u},
 601:Generated_Source\PSoC5/cyfitter_cfg.c **** 			{0x24u, 0x40u},
 602:Generated_Source\PSoC5/cyfitter_cfg.c **** 			{0x25u, 0x10u},
 603:Generated_Source\PSoC5/cyfitter_cfg.c **** 			{0x26u, 0x84u},
 604:Generated_Source\PSoC5/cyfitter_cfg.c **** 			{0x27u, 0x14u},
 605:Generated_Source\PSoC5/cyfitter_cfg.c **** 			{0x2Au, 0x40u},
 606:Generated_Source\PSoC5/cyfitter_cfg.c **** 			{0x2Du, 0x40u},
 607:Generated_Source\PSoC5/cyfitter_cfg.c **** 			{0x2Eu, 0x20u},
 608:Generated_Source\PSoC5/cyfitter_cfg.c **** 			{0x2Fu, 0xA0u},
 609:Generated_Source\PSoC5/cyfitter_cfg.c **** 			{0x32u, 0x20u},
 610:Generated_Source\PSoC5/cyfitter_cfg.c **** 			{0x33u, 0x22u},
 611:Generated_Source\PSoC5/cyfitter_cfg.c **** 			{0x35u, 0x02u},
 612:Generated_Source\PSoC5/cyfitter_cfg.c **** 			{0x37u, 0x28u},
 613:Generated_Source\PSoC5/cyfitter_cfg.c **** 			{0x38u, 0x80u},
 614:Generated_Source\PSoC5/cyfitter_cfg.c **** 			{0x3Cu, 0x60u},
ARM GAS  C:\Users\SEBAST~3\AppData\Local\Temp\ccQGNYwU.s 			page 26


 615:Generated_Source\PSoC5/cyfitter_cfg.c **** 			{0x3Fu, 0x04u},
 616:Generated_Source\PSoC5/cyfitter_cfg.c **** 			{0x42u, 0x01u},
 617:Generated_Source\PSoC5/cyfitter_cfg.c **** 			{0x48u, 0x28u},
 618:Generated_Source\PSoC5/cyfitter_cfg.c **** 			{0x49u, 0x01u},
 619:Generated_Source\PSoC5/cyfitter_cfg.c **** 			{0x50u, 0xC8u},
 620:Generated_Source\PSoC5/cyfitter_cfg.c **** 			{0x59u, 0x01u},
 621:Generated_Source\PSoC5/cyfitter_cfg.c **** 			{0x5Au, 0x88u},
 622:Generated_Source\PSoC5/cyfitter_cfg.c **** 			{0x5Eu, 0x80u},
 623:Generated_Source\PSoC5/cyfitter_cfg.c **** 			{0x71u, 0x02u},
 624:Generated_Source\PSoC5/cyfitter_cfg.c **** 			{0x77u, 0x40u},
 625:Generated_Source\PSoC5/cyfitter_cfg.c **** 			{0x8Au, 0x40u},
 626:Generated_Source\PSoC5/cyfitter_cfg.c **** 			{0x90u, 0x24u},
 627:Generated_Source\PSoC5/cyfitter_cfg.c **** 			{0x93u, 0x24u},
 628:Generated_Source\PSoC5/cyfitter_cfg.c **** 			{0x9Du, 0x02u},
 629:Generated_Source\PSoC5/cyfitter_cfg.c **** 			{0xA0u, 0x10u},
 630:Generated_Source\PSoC5/cyfitter_cfg.c **** 			{0xA5u, 0x10u},
 631:Generated_Source\PSoC5/cyfitter_cfg.c **** 			{0xA6u, 0x34u},
 632:Generated_Source\PSoC5/cyfitter_cfg.c **** 			{0xB4u, 0x01u},
 633:Generated_Source\PSoC5/cyfitter_cfg.c **** 			{0xC0u, 0x70u},
 634:Generated_Source\PSoC5/cyfitter_cfg.c **** 			{0xC2u, 0x69u},
 635:Generated_Source\PSoC5/cyfitter_cfg.c **** 			{0xC4u, 0x6Cu},
 636:Generated_Source\PSoC5/cyfitter_cfg.c **** 			{0xCAu, 0xF8u},
 637:Generated_Source\PSoC5/cyfitter_cfg.c **** 			{0xCCu, 0xE1u},
 638:Generated_Source\PSoC5/cyfitter_cfg.c **** 			{0xCEu, 0x78u},
 639:Generated_Source\PSoC5/cyfitter_cfg.c **** 			{0xD0u, 0x08u},
 640:Generated_Source\PSoC5/cyfitter_cfg.c **** 			{0xD2u, 0x04u},
 641:Generated_Source\PSoC5/cyfitter_cfg.c **** 			{0xD6u, 0x1Bu},
 642:Generated_Source\PSoC5/cyfitter_cfg.c **** 			{0x00u, 0x30u},
 643:Generated_Source\PSoC5/cyfitter_cfg.c **** 			{0x02u, 0xC9u},
 644:Generated_Source\PSoC5/cyfitter_cfg.c **** 			{0x04u, 0xFDu},
 645:Generated_Source\PSoC5/cyfitter_cfg.c **** 			{0x06u, 0x02u},
 646:Generated_Source\PSoC5/cyfitter_cfg.c **** 			{0x08u, 0x9Eu},
 647:Generated_Source\PSoC5/cyfitter_cfg.c **** 			{0x0Au, 0x60u},
 648:Generated_Source\PSoC5/cyfitter_cfg.c **** 			{0x14u, 0x73u},
 649:Generated_Source\PSoC5/cyfitter_cfg.c **** 			{0x18u, 0x94u},
 650:Generated_Source\PSoC5/cyfitter_cfg.c **** 			{0x1Au, 0x60u},
 651:Generated_Source\PSoC5/cyfitter_cfg.c **** 			{0x24u, 0xCFu},
 652:Generated_Source\PSoC5/cyfitter_cfg.c **** 			{0x26u, 0x30u},
 653:Generated_Source\PSoC5/cyfitter_cfg.c **** 			{0x2Au, 0x0Fu},
 654:Generated_Source\PSoC5/cyfitter_cfg.c **** 			{0x30u, 0xFFu},
 655:Generated_Source\PSoC5/cyfitter_cfg.c **** 			{0x38u, 0x80u},
 656:Generated_Source\PSoC5/cyfitter_cfg.c **** 			{0x3Eu, 0x41u},
 657:Generated_Source\PSoC5/cyfitter_cfg.c **** 			{0x40u, 0x34u},
 658:Generated_Source\PSoC5/cyfitter_cfg.c **** 			{0x41u, 0x06u},
 659:Generated_Source\PSoC5/cyfitter_cfg.c **** 			{0x49u, 0xFFu},
 660:Generated_Source\PSoC5/cyfitter_cfg.c **** 			{0x4Au, 0xFFu},
 661:Generated_Source\PSoC5/cyfitter_cfg.c **** 			{0x4Bu, 0xFFu},
 662:Generated_Source\PSoC5/cyfitter_cfg.c **** 			{0x4Du, 0xA0u},
 663:Generated_Source\PSoC5/cyfitter_cfg.c **** 			{0x4Fu, 0x01u},
 664:Generated_Source\PSoC5/cyfitter_cfg.c **** 			{0x50u, 0x18u},
 665:Generated_Source\PSoC5/cyfitter_cfg.c **** 			{0x58u, 0x04u},
 666:Generated_Source\PSoC5/cyfitter_cfg.c **** 			{0x5Au, 0x04u},
 667:Generated_Source\PSoC5/cyfitter_cfg.c **** 			{0x5Bu, 0x04u},
 668:Generated_Source\PSoC5/cyfitter_cfg.c **** 			{0x5Du, 0x03u},
 669:Generated_Source\PSoC5/cyfitter_cfg.c **** 			{0x5Fu, 0x01u},
 670:Generated_Source\PSoC5/cyfitter_cfg.c **** 			{0x60u, 0x40u},
 671:Generated_Source\PSoC5/cyfitter_cfg.c **** 			{0x62u, 0x80u},
ARM GAS  C:\Users\SEBAST~3\AppData\Local\Temp\ccQGNYwU.s 			page 27


 672:Generated_Source\PSoC5/cyfitter_cfg.c **** 			{0x64u, 0x40u},
 673:Generated_Source\PSoC5/cyfitter_cfg.c **** 			{0x65u, 0x40u},
 674:Generated_Source\PSoC5/cyfitter_cfg.c **** 			{0x66u, 0x80u},
 675:Generated_Source\PSoC5/cyfitter_cfg.c **** 			{0x68u, 0x40u},
 676:Generated_Source\PSoC5/cyfitter_cfg.c **** 			{0x6Au, 0x80u},
 677:Generated_Source\PSoC5/cyfitter_cfg.c **** 			{0x6Cu, 0x40u},
 678:Generated_Source\PSoC5/cyfitter_cfg.c **** 			{0x6Du, 0x20u},
 679:Generated_Source\PSoC5/cyfitter_cfg.c **** 			{0x6Eu, 0x80u},
 680:Generated_Source\PSoC5/cyfitter_cfg.c **** 			{0x82u, 0x10u},
 681:Generated_Source\PSoC5/cyfitter_cfg.c **** 			{0x83u, 0x01u},
 682:Generated_Source\PSoC5/cyfitter_cfg.c **** 			{0x84u, 0x07u},
 683:Generated_Source\PSoC5/cyfitter_cfg.c **** 			{0x88u, 0x0Cu},
 684:Generated_Source\PSoC5/cyfitter_cfg.c **** 			{0x89u, 0x02u},
 685:Generated_Source\PSoC5/cyfitter_cfg.c **** 			{0x8Cu, 0x10u},
 686:Generated_Source\PSoC5/cyfitter_cfg.c **** 			{0x90u, 0x01u},
 687:Generated_Source\PSoC5/cyfitter_cfg.c **** 			{0x93u, 0x02u},
 688:Generated_Source\PSoC5/cyfitter_cfg.c **** 			{0x94u, 0x0Au},
 689:Generated_Source\PSoC5/cyfitter_cfg.c **** 			{0x95u, 0x02u},
 690:Generated_Source\PSoC5/cyfitter_cfg.c **** 			{0x9Au, 0x10u},
 691:Generated_Source\PSoC5/cyfitter_cfg.c **** 			{0x9Eu, 0x20u},
 692:Generated_Source\PSoC5/cyfitter_cfg.c **** 			{0xA0u, 0x01u},
 693:Generated_Source\PSoC5/cyfitter_cfg.c **** 			{0xA1u, 0x04u},
 694:Generated_Source\PSoC5/cyfitter_cfg.c **** 			{0xA4u, 0x20u},
 695:Generated_Source\PSoC5/cyfitter_cfg.c **** 			{0xA8u, 0x0Cu},
 696:Generated_Source\PSoC5/cyfitter_cfg.c **** 			{0xADu, 0x04u},
 697:Generated_Source\PSoC5/cyfitter_cfg.c **** 			{0xB0u, 0x01u},
 698:Generated_Source\PSoC5/cyfitter_cfg.c **** 			{0xB2u, 0x10u},
 699:Generated_Source\PSoC5/cyfitter_cfg.c **** 			{0xB3u, 0x02u},
 700:Generated_Source\PSoC5/cyfitter_cfg.c **** 			{0xB4u, 0x0Eu},
 701:Generated_Source\PSoC5/cyfitter_cfg.c **** 			{0xB5u, 0x01u},
 702:Generated_Source\PSoC5/cyfitter_cfg.c **** 			{0xB6u, 0x20u},
 703:Generated_Source\PSoC5/cyfitter_cfg.c **** 			{0xB7u, 0x04u},
 704:Generated_Source\PSoC5/cyfitter_cfg.c **** 			{0xB8u, 0x22u},
 705:Generated_Source\PSoC5/cyfitter_cfg.c **** 			{0xB9u, 0x80u},
 706:Generated_Source\PSoC5/cyfitter_cfg.c **** 			{0xBEu, 0x45u},
 707:Generated_Source\PSoC5/cyfitter_cfg.c **** 			{0xBFu, 0x04u},
 708:Generated_Source\PSoC5/cyfitter_cfg.c **** 			{0xC0u, 0x34u},
 709:Generated_Source\PSoC5/cyfitter_cfg.c **** 			{0xC1u, 0x06u},
 710:Generated_Source\PSoC5/cyfitter_cfg.c **** 			{0xC5u, 0x40u},
 711:Generated_Source\PSoC5/cyfitter_cfg.c **** 			{0xC6u, 0xC2u},
 712:Generated_Source\PSoC5/cyfitter_cfg.c **** 			{0xC7u, 0x3Eu},
 713:Generated_Source\PSoC5/cyfitter_cfg.c **** 			{0xC8u, 0x3Eu},
 714:Generated_Source\PSoC5/cyfitter_cfg.c **** 			{0xC9u, 0xFFu},
 715:Generated_Source\PSoC5/cyfitter_cfg.c **** 			{0xCAu, 0xFFu},
 716:Generated_Source\PSoC5/cyfitter_cfg.c **** 			{0xCBu, 0xFFu},
 717:Generated_Source\PSoC5/cyfitter_cfg.c **** 			{0xCDu, 0xAFu},
 718:Generated_Source\PSoC5/cyfitter_cfg.c **** 			{0xCEu, 0x07u},
 719:Generated_Source\PSoC5/cyfitter_cfg.c **** 			{0xCFu, 0x01u},
 720:Generated_Source\PSoC5/cyfitter_cfg.c **** 			{0xD0u, 0x18u},
 721:Generated_Source\PSoC5/cyfitter_cfg.c **** 			{0xD2u, 0x80u},
 722:Generated_Source\PSoC5/cyfitter_cfg.c **** 			{0xD8u, 0x04u},
 723:Generated_Source\PSoC5/cyfitter_cfg.c **** 			{0xD9u, 0x04u},
 724:Generated_Source\PSoC5/cyfitter_cfg.c **** 			{0xDAu, 0x04u},
 725:Generated_Source\PSoC5/cyfitter_cfg.c **** 			{0xDBu, 0x04u},
 726:Generated_Source\PSoC5/cyfitter_cfg.c **** 			{0xDCu, 0x33u},
 727:Generated_Source\PSoC5/cyfitter_cfg.c **** 			{0xDDu, 0x33u},
 728:Generated_Source\PSoC5/cyfitter_cfg.c **** 			{0xDFu, 0x01u},
ARM GAS  C:\Users\SEBAST~3\AppData\Local\Temp\ccQGNYwU.s 			page 28


 729:Generated_Source\PSoC5/cyfitter_cfg.c **** 			{0xE0u, 0x40u},
 730:Generated_Source\PSoC5/cyfitter_cfg.c **** 			{0xE2u, 0x80u},
 731:Generated_Source\PSoC5/cyfitter_cfg.c **** 			{0xE4u, 0x40u},
 732:Generated_Source\PSoC5/cyfitter_cfg.c **** 			{0xE5u, 0x40u},
 733:Generated_Source\PSoC5/cyfitter_cfg.c **** 			{0xE6u, 0x80u},
 734:Generated_Source\PSoC5/cyfitter_cfg.c **** 			{0xE8u, 0x40u},
 735:Generated_Source\PSoC5/cyfitter_cfg.c **** 			{0xEAu, 0x80u},
 736:Generated_Source\PSoC5/cyfitter_cfg.c **** 			{0xECu, 0x40u},
 737:Generated_Source\PSoC5/cyfitter_cfg.c **** 			{0xEDu, 0x20u},
 738:Generated_Source\PSoC5/cyfitter_cfg.c **** 			{0xEEu, 0x80u},
 739:Generated_Source\PSoC5/cyfitter_cfg.c **** 			{0x00u, 0x10u},
 740:Generated_Source\PSoC5/cyfitter_cfg.c **** 			{0x01u, 0x02u},
 741:Generated_Source\PSoC5/cyfitter_cfg.c **** 			{0x02u, 0x60u},
 742:Generated_Source\PSoC5/cyfitter_cfg.c **** 			{0x04u, 0xA4u},
 743:Generated_Source\PSoC5/cyfitter_cfg.c **** 			{0x07u, 0x40u},
 744:Generated_Source\PSoC5/cyfitter_cfg.c **** 			{0x08u, 0x10u},
 745:Generated_Source\PSoC5/cyfitter_cfg.c **** 			{0x09u, 0x10u},
 746:Generated_Source\PSoC5/cyfitter_cfg.c **** 			{0x0Bu, 0x20u},
 747:Generated_Source\PSoC5/cyfitter_cfg.c **** 			{0x0Cu, 0x02u},
 748:Generated_Source\PSoC5/cyfitter_cfg.c **** 			{0x0Eu, 0x28u},
 749:Generated_Source\PSoC5/cyfitter_cfg.c **** 			{0x0Fu, 0x02u},
 750:Generated_Source\PSoC5/cyfitter_cfg.c **** 			{0x12u, 0x08u},
 751:Generated_Source\PSoC5/cyfitter_cfg.c **** 			{0x13u, 0x04u},
 752:Generated_Source\PSoC5/cyfitter_cfg.c **** 			{0x15u, 0x20u},
 753:Generated_Source\PSoC5/cyfitter_cfg.c **** 			{0x16u, 0x80u},
 754:Generated_Source\PSoC5/cyfitter_cfg.c **** 			{0x17u, 0x08u},
 755:Generated_Source\PSoC5/cyfitter_cfg.c **** 			{0x18u, 0x02u},
 756:Generated_Source\PSoC5/cyfitter_cfg.c **** 			{0x1Au, 0x80u},
 757:Generated_Source\PSoC5/cyfitter_cfg.c **** 			{0x1Cu, 0x44u},
 758:Generated_Source\PSoC5/cyfitter_cfg.c **** 			{0x1Du, 0x4Au},
 759:Generated_Source\PSoC5/cyfitter_cfg.c **** 			{0x1Fu, 0x18u},
 760:Generated_Source\PSoC5/cyfitter_cfg.c **** 			{0x27u, 0x29u},
 761:Generated_Source\PSoC5/cyfitter_cfg.c **** 			{0x2Cu, 0x02u},
 762:Generated_Source\PSoC5/cyfitter_cfg.c **** 			{0x2Fu, 0x80u},
 763:Generated_Source\PSoC5/cyfitter_cfg.c **** 			{0x37u, 0x09u},
 764:Generated_Source\PSoC5/cyfitter_cfg.c **** 			{0x3Fu, 0x12u},
 765:Generated_Source\PSoC5/cyfitter_cfg.c **** 			{0x40u, 0x40u},
 766:Generated_Source\PSoC5/cyfitter_cfg.c **** 			{0x43u, 0x08u},
 767:Generated_Source\PSoC5/cyfitter_cfg.c **** 			{0x45u, 0x0Au},
 768:Generated_Source\PSoC5/cyfitter_cfg.c **** 			{0x4Au, 0x08u},
 769:Generated_Source\PSoC5/cyfitter_cfg.c **** 			{0x4Fu, 0x12u},
 770:Generated_Source\PSoC5/cyfitter_cfg.c **** 			{0x54u, 0x82u},
 771:Generated_Source\PSoC5/cyfitter_cfg.c **** 			{0x56u, 0xAAu},
 772:Generated_Source\PSoC5/cyfitter_cfg.c **** 			{0x57u, 0x80u},
 773:Generated_Source\PSoC5/cyfitter_cfg.c **** 			{0x58u, 0x80u},
 774:Generated_Source\PSoC5/cyfitter_cfg.c **** 			{0x65u, 0xC0u},
 775:Generated_Source\PSoC5/cyfitter_cfg.c **** 			{0x77u, 0x40u},
 776:Generated_Source\PSoC5/cyfitter_cfg.c **** 			{0x84u, 0xA0u},
 777:Generated_Source\PSoC5/cyfitter_cfg.c **** 			{0x87u, 0x80u},
 778:Generated_Source\PSoC5/cyfitter_cfg.c **** 			{0x90u, 0xB0u},
 779:Generated_Source\PSoC5/cyfitter_cfg.c **** 			{0x91u, 0x20u},
 780:Generated_Source\PSoC5/cyfitter_cfg.c **** 			{0x93u, 0x14u},
 781:Generated_Source\PSoC5/cyfitter_cfg.c **** 			{0x94u, 0x04u},
 782:Generated_Source\PSoC5/cyfitter_cfg.c **** 			{0x96u, 0x80u},
 783:Generated_Source\PSoC5/cyfitter_cfg.c **** 			{0x9Cu, 0x30u},
 784:Generated_Source\PSoC5/cyfitter_cfg.c **** 			{0x9Du, 0x80u},
 785:Generated_Source\PSoC5/cyfitter_cfg.c **** 			{0x9Eu, 0x6Au},
ARM GAS  C:\Users\SEBAST~3\AppData\Local\Temp\ccQGNYwU.s 			page 29


 786:Generated_Source\PSoC5/cyfitter_cfg.c **** 			{0x9Fu, 0x29u},
 787:Generated_Source\PSoC5/cyfitter_cfg.c **** 			{0xA0u, 0x10u},
 788:Generated_Source\PSoC5/cyfitter_cfg.c **** 			{0xA2u, 0x08u},
 789:Generated_Source\PSoC5/cyfitter_cfg.c **** 			{0xA4u, 0x80u},
 790:Generated_Source\PSoC5/cyfitter_cfg.c **** 			{0xA6u, 0x24u},
 791:Generated_Source\PSoC5/cyfitter_cfg.c **** 			{0xB4u, 0x02u},
 792:Generated_Source\PSoC5/cyfitter_cfg.c **** 			{0xB6u, 0x20u},
 793:Generated_Source\PSoC5/cyfitter_cfg.c **** 			{0xC0u, 0xFEu},
 794:Generated_Source\PSoC5/cyfitter_cfg.c **** 			{0xC2u, 0xF6u},
 795:Generated_Source\PSoC5/cyfitter_cfg.c **** 			{0xC4u, 0x76u},
 796:Generated_Source\PSoC5/cyfitter_cfg.c **** 			{0xCAu, 0x90u},
 797:Generated_Source\PSoC5/cyfitter_cfg.c **** 			{0xCCu, 0xC0u},
 798:Generated_Source\PSoC5/cyfitter_cfg.c **** 			{0xCEu, 0xA0u},
 799:Generated_Source\PSoC5/cyfitter_cfg.c **** 			{0xD0u, 0xC3u},
 800:Generated_Source\PSoC5/cyfitter_cfg.c **** 			{0xD2u, 0x24u},
 801:Generated_Source\PSoC5/cyfitter_cfg.c **** 			{0xD6u, 0x08u},
 802:Generated_Source\PSoC5/cyfitter_cfg.c **** 			{0xE6u, 0x02u},
 803:Generated_Source\PSoC5/cyfitter_cfg.c **** 			{0x02u, 0x08u},
 804:Generated_Source\PSoC5/cyfitter_cfg.c **** 			{0x03u, 0x04u},
 805:Generated_Source\PSoC5/cyfitter_cfg.c **** 			{0x04u, 0x04u},
 806:Generated_Source\PSoC5/cyfitter_cfg.c **** 			{0x08u, 0x01u},
 807:Generated_Source\PSoC5/cyfitter_cfg.c **** 			{0x0Eu, 0x04u},
 808:Generated_Source\PSoC5/cyfitter_cfg.c **** 			{0x10u, 0x02u},
 809:Generated_Source\PSoC5/cyfitter_cfg.c **** 			{0x16u, 0x01u},
 810:Generated_Source\PSoC5/cyfitter_cfg.c **** 			{0x17u, 0x02u},
 811:Generated_Source\PSoC5/cyfitter_cfg.c **** 			{0x1Eu, 0x02u},
 812:Generated_Source\PSoC5/cyfitter_cfg.c **** 			{0x22u, 0x01u},
 813:Generated_Source\PSoC5/cyfitter_cfg.c **** 			{0x23u, 0x01u},
 814:Generated_Source\PSoC5/cyfitter_cfg.c **** 			{0x30u, 0x01u},
 815:Generated_Source\PSoC5/cyfitter_cfg.c **** 			{0x31u, 0x02u},
 816:Generated_Source\PSoC5/cyfitter_cfg.c **** 			{0x32u, 0x08u},
 817:Generated_Source\PSoC5/cyfitter_cfg.c **** 			{0x34u, 0x04u},
 818:Generated_Source\PSoC5/cyfitter_cfg.c **** 			{0x35u, 0x04u},
 819:Generated_Source\PSoC5/cyfitter_cfg.c **** 			{0x36u, 0x02u},
 820:Generated_Source\PSoC5/cyfitter_cfg.c **** 			{0x37u, 0x01u},
 821:Generated_Source\PSoC5/cyfitter_cfg.c **** 			{0x3Eu, 0x51u},
 822:Generated_Source\PSoC5/cyfitter_cfg.c **** 			{0x54u, 0x0Fu},
 823:Generated_Source\PSoC5/cyfitter_cfg.c **** 			{0x58u, 0x04u},
 824:Generated_Source\PSoC5/cyfitter_cfg.c **** 			{0x59u, 0x04u},
 825:Generated_Source\PSoC5/cyfitter_cfg.c **** 			{0x5Bu, 0x04u},
 826:Generated_Source\PSoC5/cyfitter_cfg.c **** 			{0x5Cu, 0x33u},
 827:Generated_Source\PSoC5/cyfitter_cfg.c **** 			{0x5Du, 0x30u},
 828:Generated_Source\PSoC5/cyfitter_cfg.c **** 			{0x5Fu, 0x05u},
 829:Generated_Source\PSoC5/cyfitter_cfg.c **** 			{0x84u, 0x07u},
 830:Generated_Source\PSoC5/cyfitter_cfg.c **** 			{0x85u, 0x77u},
 831:Generated_Source\PSoC5/cyfitter_cfg.c **** 			{0x88u, 0x0Cu},
 832:Generated_Source\PSoC5/cyfitter_cfg.c **** 			{0x89u, 0xC0u},
 833:Generated_Source\PSoC5/cyfitter_cfg.c **** 			{0x8Au, 0x02u},
 834:Generated_Source\PSoC5/cyfitter_cfg.c **** 			{0x8Bu, 0x24u},
 835:Generated_Source\PSoC5/cyfitter_cfg.c **** 			{0x94u, 0x0Cu},
 836:Generated_Source\PSoC5/cyfitter_cfg.c **** 			{0x96u, 0x01u},
 837:Generated_Source\PSoC5/cyfitter_cfg.c **** 			{0x97u, 0x07u},
 838:Generated_Source\PSoC5/cyfitter_cfg.c **** 			{0x98u, 0x08u},
 839:Generated_Source\PSoC5/cyfitter_cfg.c **** 			{0x99u, 0xB7u},
 840:Generated_Source\PSoC5/cyfitter_cfg.c **** 			{0x9Au, 0x01u},
 841:Generated_Source\PSoC5/cyfitter_cfg.c **** 			{0x9Bu, 0x40u},
 842:Generated_Source\PSoC5/cyfitter_cfg.c **** 			{0x9Fu, 0x08u},
ARM GAS  C:\Users\SEBAST~3\AppData\Local\Temp\ccQGNYwU.s 			page 30


 843:Generated_Source\PSoC5/cyfitter_cfg.c **** 			{0xA2u, 0x0Fu},
 844:Generated_Source\PSoC5/cyfitter_cfg.c **** 			{0xA4u, 0x0Bu},
 845:Generated_Source\PSoC5/cyfitter_cfg.c **** 			{0xA5u, 0x01u},
 846:Generated_Source\PSoC5/cyfitter_cfg.c **** 			{0xA6u, 0x04u},
 847:Generated_Source\PSoC5/cyfitter_cfg.c **** 			{0xA7u, 0xF2u},
 848:Generated_Source\PSoC5/cyfitter_cfg.c **** 			{0xA9u, 0xC1u},
 849:Generated_Source\PSoC5/cyfitter_cfg.c **** 			{0xABu, 0x12u},
 850:Generated_Source\PSoC5/cyfitter_cfg.c **** 			{0xADu, 0x84u},
 851:Generated_Source\PSoC5/cyfitter_cfg.c **** 			{0xAFu, 0x10u},
 852:Generated_Source\PSoC5/cyfitter_cfg.c **** 			{0xB2u, 0x0Fu},
 853:Generated_Source\PSoC5/cyfitter_cfg.c **** 			{0xB3u, 0x0Fu},
 854:Generated_Source\PSoC5/cyfitter_cfg.c **** 			{0xB5u, 0xF0u},
 855:Generated_Source\PSoC5/cyfitter_cfg.c **** 			{0xD4u, 0x0Fu},
 856:Generated_Source\PSoC5/cyfitter_cfg.c **** 			{0xD8u, 0x04u},
 857:Generated_Source\PSoC5/cyfitter_cfg.c **** 			{0xD9u, 0x04u},
 858:Generated_Source\PSoC5/cyfitter_cfg.c **** 			{0xDBu, 0x04u},
 859:Generated_Source\PSoC5/cyfitter_cfg.c **** 			{0xDCu, 0x33u},
 860:Generated_Source\PSoC5/cyfitter_cfg.c **** 			{0xDDu, 0x30u},
 861:Generated_Source\PSoC5/cyfitter_cfg.c **** 			{0xDFu, 0x01u},
 862:Generated_Source\PSoC5/cyfitter_cfg.c **** 			{0x00u, 0x14u},
 863:Generated_Source\PSoC5/cyfitter_cfg.c **** 			{0x01u, 0x08u},
 864:Generated_Source\PSoC5/cyfitter_cfg.c **** 			{0x04u, 0x08u},
 865:Generated_Source\PSoC5/cyfitter_cfg.c **** 			{0x06u, 0x82u},
 866:Generated_Source\PSoC5/cyfitter_cfg.c **** 			{0x07u, 0x08u},
 867:Generated_Source\PSoC5/cyfitter_cfg.c **** 			{0x08u, 0x10u},
 868:Generated_Source\PSoC5/cyfitter_cfg.c **** 			{0x0Au, 0x20u},
 869:Generated_Source\PSoC5/cyfitter_cfg.c **** 			{0x0Cu, 0x80u},
 870:Generated_Source\PSoC5/cyfitter_cfg.c **** 			{0x0Eu, 0x80u},
 871:Generated_Source\PSoC5/cyfitter_cfg.c **** 			{0x0Fu, 0x10u},
 872:Generated_Source\PSoC5/cyfitter_cfg.c **** 			{0x12u, 0x60u},
 873:Generated_Source\PSoC5/cyfitter_cfg.c **** 			{0x17u, 0x01u},
 874:Generated_Source\PSoC5/cyfitter_cfg.c **** 			{0x18u, 0x30u},
 875:Generated_Source\PSoC5/cyfitter_cfg.c **** 			{0x1Bu, 0x08u},
 876:Generated_Source\PSoC5/cyfitter_cfg.c **** 			{0x1Cu, 0x20u},
 877:Generated_Source\PSoC5/cyfitter_cfg.c **** 			{0x1Eu, 0x46u},
 878:Generated_Source\PSoC5/cyfitter_cfg.c **** 			{0x21u, 0x10u},
 879:Generated_Source\PSoC5/cyfitter_cfg.c **** 			{0x22u, 0x18u},
 880:Generated_Source\PSoC5/cyfitter_cfg.c **** 			{0x23u, 0x14u},
 881:Generated_Source\PSoC5/cyfitter_cfg.c **** 			{0x24u, 0x88u},
 882:Generated_Source\PSoC5/cyfitter_cfg.c **** 			{0x26u, 0x40u},
 883:Generated_Source\PSoC5/cyfitter_cfg.c **** 			{0x28u, 0x10u},
 884:Generated_Source\PSoC5/cyfitter_cfg.c **** 			{0x2Au, 0x40u},
 885:Generated_Source\PSoC5/cyfitter_cfg.c **** 			{0x2Bu, 0x08u},
 886:Generated_Source\PSoC5/cyfitter_cfg.c **** 			{0x2Cu, 0x80u},
 887:Generated_Source\PSoC5/cyfitter_cfg.c **** 			{0x32u, 0x68u},
 888:Generated_Source\PSoC5/cyfitter_cfg.c **** 			{0x36u, 0x04u},
 889:Generated_Source\PSoC5/cyfitter_cfg.c **** 			{0x38u, 0x04u},
 890:Generated_Source\PSoC5/cyfitter_cfg.c **** 			{0x39u, 0x20u},
 891:Generated_Source\PSoC5/cyfitter_cfg.c **** 			{0x3Eu, 0x02u},
 892:Generated_Source\PSoC5/cyfitter_cfg.c **** 			{0x58u, 0x02u},
 893:Generated_Source\PSoC5/cyfitter_cfg.c **** 			{0x59u, 0x08u},
 894:Generated_Source\PSoC5/cyfitter_cfg.c **** 			{0x5Au, 0x40u},
 895:Generated_Source\PSoC5/cyfitter_cfg.c **** 			{0x5Bu, 0x20u},
 896:Generated_Source\PSoC5/cyfitter_cfg.c **** 			{0x5Cu, 0x20u},
 897:Generated_Source\PSoC5/cyfitter_cfg.c **** 			{0x5Du, 0x80u},
 898:Generated_Source\PSoC5/cyfitter_cfg.c **** 			{0x5Eu, 0x06u},
 899:Generated_Source\PSoC5/cyfitter_cfg.c **** 			{0x66u, 0x28u},
ARM GAS  C:\Users\SEBAST~3\AppData\Local\Temp\ccQGNYwU.s 			page 31


 900:Generated_Source\PSoC5/cyfitter_cfg.c **** 			{0x7Cu, 0x04u},
 901:Generated_Source\PSoC5/cyfitter_cfg.c **** 			{0x9Au, 0x80u},
 902:Generated_Source\PSoC5/cyfitter_cfg.c **** 			{0xB2u, 0x80u},
 903:Generated_Source\PSoC5/cyfitter_cfg.c **** 			{0xC0u, 0xF6u},
 904:Generated_Source\PSoC5/cyfitter_cfg.c **** 			{0xC2u, 0xB6u},
 905:Generated_Source\PSoC5/cyfitter_cfg.c **** 			{0xC4u, 0x1Cu},
 906:Generated_Source\PSoC5/cyfitter_cfg.c **** 			{0xCAu, 0x8Eu},
 907:Generated_Source\PSoC5/cyfitter_cfg.c **** 			{0xCCu, 0x4Eu},
 908:Generated_Source\PSoC5/cyfitter_cfg.c **** 			{0xCEu, 0x86u},
 909:Generated_Source\PSoC5/cyfitter_cfg.c **** 			{0xD6u, 0xFFu},
 910:Generated_Source\PSoC5/cyfitter_cfg.c **** 			{0xD8u, 0x60u},
 911:Generated_Source\PSoC5/cyfitter_cfg.c **** 			{0xDEu, 0x40u},
 912:Generated_Source\PSoC5/cyfitter_cfg.c **** 			{0xECu, 0x20u},
 913:Generated_Source\PSoC5/cyfitter_cfg.c **** 			{0xECu, 0x10u},
 914:Generated_Source\PSoC5/cyfitter_cfg.c **** 			{0xEAu, 0x02u},
 915:Generated_Source\PSoC5/cyfitter_cfg.c **** 			{0xECu, 0x04u},
 916:Generated_Source\PSoC5/cyfitter_cfg.c **** 			{0xEEu, 0x0Au},
 917:Generated_Source\PSoC5/cyfitter_cfg.c **** 			{0x03u, 0x20u},
 918:Generated_Source\PSoC5/cyfitter_cfg.c **** 			{0x05u, 0x0Cu},
 919:Generated_Source\PSoC5/cyfitter_cfg.c **** 			{0x07u, 0x03u},
 920:Generated_Source\PSoC5/cyfitter_cfg.c **** 			{0x08u, 0x04u},
 921:Generated_Source\PSoC5/cyfitter_cfg.c **** 			{0x0Bu, 0x40u},
 922:Generated_Source\PSoC5/cyfitter_cfg.c **** 			{0x0Fu, 0x10u},
 923:Generated_Source\PSoC5/cyfitter_cfg.c **** 			{0x15u, 0x0Au},
 924:Generated_Source\PSoC5/cyfitter_cfg.c **** 			{0x16u, 0x02u},
 925:Generated_Source\PSoC5/cyfitter_cfg.c **** 			{0x17u, 0x05u},
 926:Generated_Source\PSoC5/cyfitter_cfg.c **** 			{0x19u, 0x0Fu},
 927:Generated_Source\PSoC5/cyfitter_cfg.c **** 			{0x1Eu, 0x02u},
 928:Generated_Source\PSoC5/cyfitter_cfg.c **** 			{0x21u, 0x05u},
 929:Generated_Source\PSoC5/cyfitter_cfg.c **** 			{0x23u, 0x0Au},
 930:Generated_Source\PSoC5/cyfitter_cfg.c **** 			{0x25u, 0x07u},
 931:Generated_Source\PSoC5/cyfitter_cfg.c **** 			{0x26u, 0x04u},
 932:Generated_Source\PSoC5/cyfitter_cfg.c **** 			{0x29u, 0x03u},
 933:Generated_Source\PSoC5/cyfitter_cfg.c **** 			{0x2Bu, 0x0Cu},
 934:Generated_Source\PSoC5/cyfitter_cfg.c **** 			{0x2Eu, 0x01u},
 935:Generated_Source\PSoC5/cyfitter_cfg.c **** 			{0x30u, 0x04u},
 936:Generated_Source\PSoC5/cyfitter_cfg.c **** 			{0x31u, 0x20u},
 937:Generated_Source\PSoC5/cyfitter_cfg.c **** 			{0x32u, 0x01u},
 938:Generated_Source\PSoC5/cyfitter_cfg.c **** 			{0x33u, 0x40u},
 939:Generated_Source\PSoC5/cyfitter_cfg.c **** 			{0x34u, 0x02u},
 940:Generated_Source\PSoC5/cyfitter_cfg.c **** 			{0x35u, 0x0Fu},
 941:Generated_Source\PSoC5/cyfitter_cfg.c **** 			{0x37u, 0x10u},
 942:Generated_Source\PSoC5/cyfitter_cfg.c **** 			{0x3Eu, 0x10u},
 943:Generated_Source\PSoC5/cyfitter_cfg.c **** 			{0x40u, 0x30u},
 944:Generated_Source\PSoC5/cyfitter_cfg.c **** 			{0x41u, 0x04u},
 945:Generated_Source\PSoC5/cyfitter_cfg.c **** 			{0x45u, 0xD0u},
 946:Generated_Source\PSoC5/cyfitter_cfg.c **** 			{0x46u, 0x10u},
 947:Generated_Source\PSoC5/cyfitter_cfg.c **** 			{0x47u, 0x20u},
 948:Generated_Source\PSoC5/cyfitter_cfg.c **** 			{0x48u, 0x2Au},
 949:Generated_Source\PSoC5/cyfitter_cfg.c **** 			{0x49u, 0xFFu},
 950:Generated_Source\PSoC5/cyfitter_cfg.c **** 			{0x4Au, 0xFFu},
 951:Generated_Source\PSoC5/cyfitter_cfg.c **** 			{0x4Bu, 0xFFu},
 952:Generated_Source\PSoC5/cyfitter_cfg.c **** 			{0x4Du, 0xA0u},
 953:Generated_Source\PSoC5/cyfitter_cfg.c **** 			{0x4Fu, 0x04u},
 954:Generated_Source\PSoC5/cyfitter_cfg.c **** 			{0x50u, 0x18u},
 955:Generated_Source\PSoC5/cyfitter_cfg.c **** 			{0x54u, 0x05u},
 956:Generated_Source\PSoC5/cyfitter_cfg.c **** 			{0x58u, 0x04u},
ARM GAS  C:\Users\SEBAST~3\AppData\Local\Temp\ccQGNYwU.s 			page 32


 957:Generated_Source\PSoC5/cyfitter_cfg.c **** 			{0x59u, 0x04u},
 958:Generated_Source\PSoC5/cyfitter_cfg.c **** 			{0x5Au, 0x04u},
 959:Generated_Source\PSoC5/cyfitter_cfg.c **** 			{0x5Bu, 0x04u},
 960:Generated_Source\PSoC5/cyfitter_cfg.c **** 			{0x5Cu, 0x34u},
 961:Generated_Source\PSoC5/cyfitter_cfg.c **** 			{0x5Du, 0x44u},
 962:Generated_Source\PSoC5/cyfitter_cfg.c **** 			{0x5Fu, 0x01u},
 963:Generated_Source\PSoC5/cyfitter_cfg.c **** 			{0x60u, 0x40u},
 964:Generated_Source\PSoC5/cyfitter_cfg.c **** 			{0x62u, 0xC0u},
 965:Generated_Source\PSoC5/cyfitter_cfg.c **** 			{0x64u, 0x40u},
 966:Generated_Source\PSoC5/cyfitter_cfg.c **** 			{0x65u, 0x40u},
 967:Generated_Source\PSoC5/cyfitter_cfg.c **** 			{0x66u, 0xC0u},
 968:Generated_Source\PSoC5/cyfitter_cfg.c **** 			{0x68u, 0xC0u},
 969:Generated_Source\PSoC5/cyfitter_cfg.c **** 			{0x6Au, 0xC0u},
 970:Generated_Source\PSoC5/cyfitter_cfg.c **** 			{0x6Cu, 0xC0u},
 971:Generated_Source\PSoC5/cyfitter_cfg.c **** 			{0x6Eu, 0xC0u},
 972:Generated_Source\PSoC5/cyfitter_cfg.c **** 			{0x80u, 0x02u},
 973:Generated_Source\PSoC5/cyfitter_cfg.c **** 			{0x82u, 0x01u},
 974:Generated_Source\PSoC5/cyfitter_cfg.c **** 			{0x83u, 0x02u},
 975:Generated_Source\PSoC5/cyfitter_cfg.c **** 			{0x85u, 0x01u},
 976:Generated_Source\PSoC5/cyfitter_cfg.c **** 			{0x87u, 0x02u},
 977:Generated_Source\PSoC5/cyfitter_cfg.c **** 			{0x8Bu, 0x04u},
 978:Generated_Source\PSoC5/cyfitter_cfg.c **** 			{0x8Cu, 0x01u},
 979:Generated_Source\PSoC5/cyfitter_cfg.c **** 			{0x8Eu, 0x02u},
 980:Generated_Source\PSoC5/cyfitter_cfg.c **** 			{0x8Fu, 0x08u},
 981:Generated_Source\PSoC5/cyfitter_cfg.c **** 			{0x97u, 0x04u},
 982:Generated_Source\PSoC5/cyfitter_cfg.c **** 			{0x9Bu, 0x01u},
 983:Generated_Source\PSoC5/cyfitter_cfg.c **** 			{0xA0u, 0x01u},
 984:Generated_Source\PSoC5/cyfitter_cfg.c **** 			{0xA2u, 0x02u},
 985:Generated_Source\PSoC5/cyfitter_cfg.c **** 			{0xACu, 0x01u},
 986:Generated_Source\PSoC5/cyfitter_cfg.c **** 			{0xAEu, 0x02u},
 987:Generated_Source\PSoC5/cyfitter_cfg.c **** 			{0xAFu, 0x08u},
 988:Generated_Source\PSoC5/cyfitter_cfg.c **** 			{0xB0u, 0x03u},
 989:Generated_Source\PSoC5/cyfitter_cfg.c **** 			{0xB1u, 0x08u},
 990:Generated_Source\PSoC5/cyfitter_cfg.c **** 			{0xB5u, 0x04u},
 991:Generated_Source\PSoC5/cyfitter_cfg.c **** 			{0xB7u, 0x03u},
 992:Generated_Source\PSoC5/cyfitter_cfg.c **** 			{0xBAu, 0x02u},
 993:Generated_Source\PSoC5/cyfitter_cfg.c **** 			{0xBFu, 0x40u},
 994:Generated_Source\PSoC5/cyfitter_cfg.c **** 			{0xD8u, 0x04u},
 995:Generated_Source\PSoC5/cyfitter_cfg.c **** 			{0xD9u, 0x04u},
 996:Generated_Source\PSoC5/cyfitter_cfg.c **** 			{0xDBu, 0x04u},
 997:Generated_Source\PSoC5/cyfitter_cfg.c **** 			{0xDCu, 0x43u},
 998:Generated_Source\PSoC5/cyfitter_cfg.c **** 			{0xDFu, 0x01u},
 999:Generated_Source\PSoC5/cyfitter_cfg.c **** 			{0x00u, 0x40u},
1000:Generated_Source\PSoC5/cyfitter_cfg.c **** 			{0x01u, 0x02u},
1001:Generated_Source\PSoC5/cyfitter_cfg.c **** 			{0x05u, 0x10u},
1002:Generated_Source\PSoC5/cyfitter_cfg.c **** 			{0x0Du, 0x08u},
1003:Generated_Source\PSoC5/cyfitter_cfg.c **** 			{0x0Fu, 0x02u},
1004:Generated_Source\PSoC5/cyfitter_cfg.c **** 			{0x11u, 0x81u},
1005:Generated_Source\PSoC5/cyfitter_cfg.c **** 			{0x12u, 0x80u},
1006:Generated_Source\PSoC5/cyfitter_cfg.c **** 			{0x16u, 0x10u},
1007:Generated_Source\PSoC5/cyfitter_cfg.c **** 			{0x17u, 0x40u},
1008:Generated_Source\PSoC5/cyfitter_cfg.c **** 			{0x19u, 0x02u},
1009:Generated_Source\PSoC5/cyfitter_cfg.c **** 			{0x1Du, 0x08u},
1010:Generated_Source\PSoC5/cyfitter_cfg.c **** 			{0x1Eu, 0x48u},
1011:Generated_Source\PSoC5/cyfitter_cfg.c **** 			{0x20u, 0x02u},
1012:Generated_Source\PSoC5/cyfitter_cfg.c **** 			{0x21u, 0x21u},
1013:Generated_Source\PSoC5/cyfitter_cfg.c **** 			{0x24u, 0x40u},
ARM GAS  C:\Users\SEBAST~3\AppData\Local\Temp\ccQGNYwU.s 			page 33


1014:Generated_Source\PSoC5/cyfitter_cfg.c **** 			{0x25u, 0x40u},
1015:Generated_Source\PSoC5/cyfitter_cfg.c **** 			{0x26u, 0x30u},
1016:Generated_Source\PSoC5/cyfitter_cfg.c **** 			{0x27u, 0x20u},
1017:Generated_Source\PSoC5/cyfitter_cfg.c **** 			{0x29u, 0x80u},
1018:Generated_Source\PSoC5/cyfitter_cfg.c **** 			{0x2Du, 0x02u},
1019:Generated_Source\PSoC5/cyfitter_cfg.c **** 			{0x2Eu, 0x20u},
1020:Generated_Source\PSoC5/cyfitter_cfg.c **** 			{0x2Fu, 0x10u},
1021:Generated_Source\PSoC5/cyfitter_cfg.c **** 			{0x31u, 0x28u},
1022:Generated_Source\PSoC5/cyfitter_cfg.c **** 			{0x36u, 0x20u},
1023:Generated_Source\PSoC5/cyfitter_cfg.c **** 			{0x37u, 0x08u},
1024:Generated_Source\PSoC5/cyfitter_cfg.c **** 			{0x38u, 0x88u},
1025:Generated_Source\PSoC5/cyfitter_cfg.c **** 			{0x39u, 0x02u},
1026:Generated_Source\PSoC5/cyfitter_cfg.c **** 			{0x3Au, 0x10u},
1027:Generated_Source\PSoC5/cyfitter_cfg.c **** 			{0x3Cu, 0x60u},
1028:Generated_Source\PSoC5/cyfitter_cfg.c **** 			{0x3Du, 0x01u},
1029:Generated_Source\PSoC5/cyfitter_cfg.c **** 			{0x3Fu, 0x04u},
1030:Generated_Source\PSoC5/cyfitter_cfg.c **** 			{0x45u, 0x09u},
1031:Generated_Source\PSoC5/cyfitter_cfg.c **** 			{0x4Fu, 0x01u},
1032:Generated_Source\PSoC5/cyfitter_cfg.c **** 			{0x55u, 0x01u},
1033:Generated_Source\PSoC5/cyfitter_cfg.c **** 			{0x56u, 0x10u},
1034:Generated_Source\PSoC5/cyfitter_cfg.c **** 			{0x57u, 0x11u},
1035:Generated_Source\PSoC5/cyfitter_cfg.c **** 			{0x58u, 0x40u},
1036:Generated_Source\PSoC5/cyfitter_cfg.c **** 			{0x5Eu, 0x48u},
1037:Generated_Source\PSoC5/cyfitter_cfg.c **** 			{0x5Fu, 0x01u},
1038:Generated_Source\PSoC5/cyfitter_cfg.c **** 			{0x90u, 0x80u},
1039:Generated_Source\PSoC5/cyfitter_cfg.c **** 			{0x91u, 0x08u},
1040:Generated_Source\PSoC5/cyfitter_cfg.c **** 			{0x93u, 0x24u},
1041:Generated_Source\PSoC5/cyfitter_cfg.c **** 			{0x99u, 0x80u},
1042:Generated_Source\PSoC5/cyfitter_cfg.c **** 			{0x9Au, 0x20u},
1043:Generated_Source\PSoC5/cyfitter_cfg.c **** 			{0x9Bu, 0x48u},
1044:Generated_Source\PSoC5/cyfitter_cfg.c **** 			{0x9Du, 0x02u},
1045:Generated_Source\PSoC5/cyfitter_cfg.c **** 			{0x9Eu, 0x40u},
1046:Generated_Source\PSoC5/cyfitter_cfg.c **** 			{0x9Fu, 0x20u},
1047:Generated_Source\PSoC5/cyfitter_cfg.c **** 			{0xA0u, 0x10u},
1048:Generated_Source\PSoC5/cyfitter_cfg.c **** 			{0xA2u, 0x80u},
1049:Generated_Source\PSoC5/cyfitter_cfg.c **** 			{0xA6u, 0x30u},
1050:Generated_Source\PSoC5/cyfitter_cfg.c **** 			{0xA9u, 0x40u},
1051:Generated_Source\PSoC5/cyfitter_cfg.c **** 			{0xC0u, 0x49u},
1052:Generated_Source\PSoC5/cyfitter_cfg.c **** 			{0xC2u, 0xA0u},
1053:Generated_Source\PSoC5/cyfitter_cfg.c **** 			{0xC4u, 0xA9u},
1054:Generated_Source\PSoC5/cyfitter_cfg.c **** 			{0xCAu, 0xE8u},
1055:Generated_Source\PSoC5/cyfitter_cfg.c **** 			{0xCCu, 0x66u},
1056:Generated_Source\PSoC5/cyfitter_cfg.c **** 			{0xCEu, 0xFFu},
1057:Generated_Source\PSoC5/cyfitter_cfg.c **** 			{0xD0u, 0xC0u},
1058:Generated_Source\PSoC5/cyfitter_cfg.c **** 			{0xD6u, 0xD8u},
1059:Generated_Source\PSoC5/cyfitter_cfg.c **** 			{0xEAu, 0x02u},
1060:Generated_Source\PSoC5/cyfitter_cfg.c **** 			{0xEEu, 0x0Au},
1061:Generated_Source\PSoC5/cyfitter_cfg.c **** 			{0x05u, 0x01u},
1062:Generated_Source\PSoC5/cyfitter_cfg.c **** 			{0x0Eu, 0x02u},
1063:Generated_Source\PSoC5/cyfitter_cfg.c **** 			{0x0Fu, 0x04u},
1064:Generated_Source\PSoC5/cyfitter_cfg.c **** 			{0x13u, 0x02u},
1065:Generated_Source\PSoC5/cyfitter_cfg.c **** 			{0x16u, 0x01u},
1066:Generated_Source\PSoC5/cyfitter_cfg.c **** 			{0x1Cu, 0x01u},
1067:Generated_Source\PSoC5/cyfitter_cfg.c **** 			{0x1Eu, 0x02u},
1068:Generated_Source\PSoC5/cyfitter_cfg.c **** 			{0x22u, 0x04u},
1069:Generated_Source\PSoC5/cyfitter_cfg.c **** 			{0x26u, 0x08u},
1070:Generated_Source\PSoC5/cyfitter_cfg.c **** 			{0x2Au, 0x0Cu},
ARM GAS  C:\Users\SEBAST~3\AppData\Local\Temp\ccQGNYwU.s 			page 34


1071:Generated_Source\PSoC5/cyfitter_cfg.c **** 			{0x2Bu, 0x02u},
1072:Generated_Source\PSoC5/cyfitter_cfg.c **** 			{0x2Fu, 0x01u},
1073:Generated_Source\PSoC5/cyfitter_cfg.c **** 			{0x30u, 0x04u},
1074:Generated_Source\PSoC5/cyfitter_cfg.c **** 			{0x31u, 0x04u},
1075:Generated_Source\PSoC5/cyfitter_cfg.c **** 			{0x33u, 0x02u},
1076:Generated_Source\PSoC5/cyfitter_cfg.c **** 			{0x34u, 0x08u},
1077:Generated_Source\PSoC5/cyfitter_cfg.c **** 			{0x36u, 0x03u},
1078:Generated_Source\PSoC5/cyfitter_cfg.c **** 			{0x37u, 0x01u},
1079:Generated_Source\PSoC5/cyfitter_cfg.c **** 			{0x3Eu, 0x50u},
1080:Generated_Source\PSoC5/cyfitter_cfg.c **** 			{0x40u, 0x30u},
1081:Generated_Source\PSoC5/cyfitter_cfg.c **** 			{0x41u, 0x06u},
1082:Generated_Source\PSoC5/cyfitter_cfg.c **** 			{0x45u, 0xD2u},
1083:Generated_Source\PSoC5/cyfitter_cfg.c **** 			{0x46u, 0x01u},
1084:Generated_Source\PSoC5/cyfitter_cfg.c **** 			{0x47u, 0x02u},
1085:Generated_Source\PSoC5/cyfitter_cfg.c **** 			{0x48u, 0x17u},
1086:Generated_Source\PSoC5/cyfitter_cfg.c **** 			{0x49u, 0xFFu},
1087:Generated_Source\PSoC5/cyfitter_cfg.c **** 			{0x4Au, 0xFFu},
1088:Generated_Source\PSoC5/cyfitter_cfg.c **** 			{0x4Bu, 0xFFu},
1089:Generated_Source\PSoC5/cyfitter_cfg.c **** 			{0x4Du, 0xA0u},
1090:Generated_Source\PSoC5/cyfitter_cfg.c **** 			{0x4Fu, 0x04u},
1091:Generated_Source\PSoC5/cyfitter_cfg.c **** 			{0x50u, 0x18u},
1092:Generated_Source\PSoC5/cyfitter_cfg.c **** 			{0x52u, 0x80u},
1093:Generated_Source\PSoC5/cyfitter_cfg.c **** 			{0x54u, 0x05u},
1094:Generated_Source\PSoC5/cyfitter_cfg.c **** 			{0x58u, 0x04u},
1095:Generated_Source\PSoC5/cyfitter_cfg.c **** 			{0x59u, 0x04u},
1096:Generated_Source\PSoC5/cyfitter_cfg.c **** 			{0x5Au, 0x04u},
1097:Generated_Source\PSoC5/cyfitter_cfg.c **** 			{0x5Bu, 0x04u},
1098:Generated_Source\PSoC5/cyfitter_cfg.c **** 			{0x5Cu, 0x44u},
1099:Generated_Source\PSoC5/cyfitter_cfg.c **** 			{0x5Du, 0x44u},
1100:Generated_Source\PSoC5/cyfitter_cfg.c **** 			{0x5Fu, 0x01u},
1101:Generated_Source\PSoC5/cyfitter_cfg.c **** 			{0x60u, 0x40u},
1102:Generated_Source\PSoC5/cyfitter_cfg.c **** 			{0x62u, 0xC0u},
1103:Generated_Source\PSoC5/cyfitter_cfg.c **** 			{0x64u, 0x40u},
1104:Generated_Source\PSoC5/cyfitter_cfg.c **** 			{0x65u, 0x40u},
1105:Generated_Source\PSoC5/cyfitter_cfg.c **** 			{0x66u, 0xC0u},
1106:Generated_Source\PSoC5/cyfitter_cfg.c **** 			{0x68u, 0xC0u},
1107:Generated_Source\PSoC5/cyfitter_cfg.c **** 			{0x6Au, 0xC0u},
1108:Generated_Source\PSoC5/cyfitter_cfg.c **** 			{0x6Cu, 0xC0u},
1109:Generated_Source\PSoC5/cyfitter_cfg.c **** 			{0x6Eu, 0xC0u},
1110:Generated_Source\PSoC5/cyfitter_cfg.c **** 			{0x83u, 0x01u},
1111:Generated_Source\PSoC5/cyfitter_cfg.c **** 			{0x87u, 0x02u},
1112:Generated_Source\PSoC5/cyfitter_cfg.c **** 			{0x93u, 0x01u},
1113:Generated_Source\PSoC5/cyfitter_cfg.c **** 			{0x96u, 0x02u},
1114:Generated_Source\PSoC5/cyfitter_cfg.c **** 			{0x9Au, 0x01u},
1115:Generated_Source\PSoC5/cyfitter_cfg.c **** 			{0x9Fu, 0x04u},
1116:Generated_Source\PSoC5/cyfitter_cfg.c **** 			{0xA0u, 0x01u},
1117:Generated_Source\PSoC5/cyfitter_cfg.c **** 			{0xB0u, 0x01u},
1118:Generated_Source\PSoC5/cyfitter_cfg.c **** 			{0xB3u, 0x04u},
1119:Generated_Source\PSoC5/cyfitter_cfg.c **** 			{0xB4u, 0x02u},
1120:Generated_Source\PSoC5/cyfitter_cfg.c **** 			{0xB5u, 0x01u},
1121:Generated_Source\PSoC5/cyfitter_cfg.c **** 			{0xB7u, 0x02u},
1122:Generated_Source\PSoC5/cyfitter_cfg.c **** 			{0xBFu, 0x10u},
1123:Generated_Source\PSoC5/cyfitter_cfg.c **** 			{0xC0u, 0x50u},
1124:Generated_Source\PSoC5/cyfitter_cfg.c **** 			{0xC1u, 0x04u},
1125:Generated_Source\PSoC5/cyfitter_cfg.c **** 			{0xC5u, 0xD1u},
1126:Generated_Source\PSoC5/cyfitter_cfg.c **** 			{0xC7u, 0x20u},
1127:Generated_Source\PSoC5/cyfitter_cfg.c **** 			{0xC8u, 0x23u},
ARM GAS  C:\Users\SEBAST~3\AppData\Local\Temp\ccQGNYwU.s 			page 35


1128:Generated_Source\PSoC5/cyfitter_cfg.c **** 			{0xC9u, 0xFFu},
1129:Generated_Source\PSoC5/cyfitter_cfg.c **** 			{0xCAu, 0xFFu},
1130:Generated_Source\PSoC5/cyfitter_cfg.c **** 			{0xCBu, 0xFFu},
1131:Generated_Source\PSoC5/cyfitter_cfg.c **** 			{0xCDu, 0xA0u},
1132:Generated_Source\PSoC5/cyfitter_cfg.c **** 			{0xCFu, 0x04u},
1133:Generated_Source\PSoC5/cyfitter_cfg.c **** 			{0xD0u, 0x18u},
1134:Generated_Source\PSoC5/cyfitter_cfg.c **** 			{0xD2u, 0x80u},
1135:Generated_Source\PSoC5/cyfitter_cfg.c **** 			{0xD4u, 0x05u},
1136:Generated_Source\PSoC5/cyfitter_cfg.c **** 			{0xD8u, 0x04u},
1137:Generated_Source\PSoC5/cyfitter_cfg.c **** 			{0xD9u, 0x04u},
1138:Generated_Source\PSoC5/cyfitter_cfg.c **** 			{0xDAu, 0x04u},
1139:Generated_Source\PSoC5/cyfitter_cfg.c **** 			{0xDBu, 0x04u},
1140:Generated_Source\PSoC5/cyfitter_cfg.c **** 			{0xDCu, 0x44u},
1141:Generated_Source\PSoC5/cyfitter_cfg.c **** 			{0xDDu, 0x44u},
1142:Generated_Source\PSoC5/cyfitter_cfg.c **** 			{0xDFu, 0x01u},
1143:Generated_Source\PSoC5/cyfitter_cfg.c **** 			{0xE0u, 0x40u},
1144:Generated_Source\PSoC5/cyfitter_cfg.c **** 			{0xE2u, 0xC0u},
1145:Generated_Source\PSoC5/cyfitter_cfg.c **** 			{0xE4u, 0x40u},
1146:Generated_Source\PSoC5/cyfitter_cfg.c **** 			{0xE5u, 0x40u},
1147:Generated_Source\PSoC5/cyfitter_cfg.c **** 			{0xE6u, 0xC0u},
1148:Generated_Source\PSoC5/cyfitter_cfg.c **** 			{0xE8u, 0xC0u},
1149:Generated_Source\PSoC5/cyfitter_cfg.c **** 			{0xEAu, 0xC0u},
1150:Generated_Source\PSoC5/cyfitter_cfg.c **** 			{0xECu, 0xC0u},
1151:Generated_Source\PSoC5/cyfitter_cfg.c **** 			{0xEEu, 0xC0u},
1152:Generated_Source\PSoC5/cyfitter_cfg.c **** 			{0x03u, 0x02u},
1153:Generated_Source\PSoC5/cyfitter_cfg.c **** 			{0x08u, 0xC0u},
1154:Generated_Source\PSoC5/cyfitter_cfg.c **** 			{0x0Bu, 0x10u},
1155:Generated_Source\PSoC5/cyfitter_cfg.c **** 			{0x0Fu, 0x28u},
1156:Generated_Source\PSoC5/cyfitter_cfg.c **** 			{0x10u, 0x20u},
1157:Generated_Source\PSoC5/cyfitter_cfg.c **** 			{0x12u, 0x48u},
1158:Generated_Source\PSoC5/cyfitter_cfg.c **** 			{0x17u, 0x02u},
1159:Generated_Source\PSoC5/cyfitter_cfg.c **** 			{0x1Au, 0x06u},
1160:Generated_Source\PSoC5/cyfitter_cfg.c **** 			{0x1Bu, 0x02u},
1161:Generated_Source\PSoC5/cyfitter_cfg.c **** 			{0x1Du, 0x10u},
1162:Generated_Source\PSoC5/cyfitter_cfg.c **** 			{0x1Eu, 0x80u},
1163:Generated_Source\PSoC5/cyfitter_cfg.c **** 			{0x22u, 0x42u},
1164:Generated_Source\PSoC5/cyfitter_cfg.c **** 			{0x23u, 0x10u},
1165:Generated_Source\PSoC5/cyfitter_cfg.c **** 			{0x25u, 0x08u},
1166:Generated_Source\PSoC5/cyfitter_cfg.c **** 			{0x26u, 0x08u},
1167:Generated_Source\PSoC5/cyfitter_cfg.c **** 			{0x27u, 0x0Au},
1168:Generated_Source\PSoC5/cyfitter_cfg.c **** 			{0x2Au, 0x40u},
1169:Generated_Source\PSoC5/cyfitter_cfg.c **** 			{0x2Bu, 0x04u},
1170:Generated_Source\PSoC5/cyfitter_cfg.c **** 			{0x32u, 0x02u},
1171:Generated_Source\PSoC5/cyfitter_cfg.c **** 			{0x36u, 0x02u},
1172:Generated_Source\PSoC5/cyfitter_cfg.c **** 			{0x37u, 0x40u},
1173:Generated_Source\PSoC5/cyfitter_cfg.c **** 			{0x39u, 0x08u},
1174:Generated_Source\PSoC5/cyfitter_cfg.c **** 			{0x3Au, 0x80u},
1175:Generated_Source\PSoC5/cyfitter_cfg.c **** 			{0x3Fu, 0x0Au},
1176:Generated_Source\PSoC5/cyfitter_cfg.c **** 			{0x41u, 0x08u},
1177:Generated_Source\PSoC5/cyfitter_cfg.c **** 			{0x45u, 0x01u},
1178:Generated_Source\PSoC5/cyfitter_cfg.c **** 			{0x48u, 0x28u},
1179:Generated_Source\PSoC5/cyfitter_cfg.c **** 			{0x49u, 0x01u},
1180:Generated_Source\PSoC5/cyfitter_cfg.c **** 			{0x4Eu, 0x02u},
1181:Generated_Source\PSoC5/cyfitter_cfg.c **** 			{0x4Fu, 0x09u},
1182:Generated_Source\PSoC5/cyfitter_cfg.c **** 			{0x50u, 0x08u},
1183:Generated_Source\PSoC5/cyfitter_cfg.c **** 			{0x52u, 0x40u},
1184:Generated_Source\PSoC5/cyfitter_cfg.c **** 			{0x55u, 0x01u},
ARM GAS  C:\Users\SEBAST~3\AppData\Local\Temp\ccQGNYwU.s 			page 36


1185:Generated_Source\PSoC5/cyfitter_cfg.c **** 			{0x57u, 0x01u},
1186:Generated_Source\PSoC5/cyfitter_cfg.c **** 			{0x59u, 0x01u},
1187:Generated_Source\PSoC5/cyfitter_cfg.c **** 			{0x5Au, 0x84u},
1188:Generated_Source\PSoC5/cyfitter_cfg.c **** 			{0x5Eu, 0x80u},
1189:Generated_Source\PSoC5/cyfitter_cfg.c **** 			{0x5Fu, 0x09u},
1190:Generated_Source\PSoC5/cyfitter_cfg.c **** 			{0x72u, 0x80u},
1191:Generated_Source\PSoC5/cyfitter_cfg.c **** 			{0x77u, 0x40u},
1192:Generated_Source\PSoC5/cyfitter_cfg.c **** 			{0x86u, 0x01u},
1193:Generated_Source\PSoC5/cyfitter_cfg.c **** 			{0x8Cu, 0x80u},
1194:Generated_Source\PSoC5/cyfitter_cfg.c **** 			{0x91u, 0x08u},
1195:Generated_Source\PSoC5/cyfitter_cfg.c **** 			{0x9Cu, 0x40u},
1196:Generated_Source\PSoC5/cyfitter_cfg.c **** 			{0x9Du, 0x10u},
1197:Generated_Source\PSoC5/cyfitter_cfg.c **** 			{0x9Eu, 0x40u},
1198:Generated_Source\PSoC5/cyfitter_cfg.c **** 			{0xA3u, 0x10u},
1199:Generated_Source\PSoC5/cyfitter_cfg.c **** 			{0xB0u, 0x01u},
1200:Generated_Source\PSoC5/cyfitter_cfg.c **** 			{0xB4u, 0x04u},
1201:Generated_Source\PSoC5/cyfitter_cfg.c **** 			{0xC0u, 0x01u},
1202:Generated_Source\PSoC5/cyfitter_cfg.c **** 			{0xC2u, 0x65u},
1203:Generated_Source\PSoC5/cyfitter_cfg.c **** 			{0xC4u, 0x1Eu},
1204:Generated_Source\PSoC5/cyfitter_cfg.c **** 			{0xCAu, 0x0Cu},
1205:Generated_Source\PSoC5/cyfitter_cfg.c **** 			{0xCCu, 0x91u},
1206:Generated_Source\PSoC5/cyfitter_cfg.c **** 			{0xCEu, 0xCAu},
1207:Generated_Source\PSoC5/cyfitter_cfg.c **** 			{0xD0u, 0x82u},
1208:Generated_Source\PSoC5/cyfitter_cfg.c **** 			{0xD2u, 0x14u},
1209:Generated_Source\PSoC5/cyfitter_cfg.c **** 			{0xD6u, 0xDBu},
1210:Generated_Source\PSoC5/cyfitter_cfg.c **** 			{0xE4u, 0x02u},
1211:Generated_Source\PSoC5/cyfitter_cfg.c **** 			{0xECu, 0x10u},
1212:Generated_Source\PSoC5/cyfitter_cfg.c **** 			{0x06u, 0x02u},
1213:Generated_Source\PSoC5/cyfitter_cfg.c **** 			{0x07u, 0x20u},
1214:Generated_Source\PSoC5/cyfitter_cfg.c **** 			{0x33u, 0x81u},
1215:Generated_Source\PSoC5/cyfitter_cfg.c **** 			{0x36u, 0x40u},
1216:Generated_Source\PSoC5/cyfitter_cfg.c **** 			{0xC0u, 0xA0u},
1217:Generated_Source\PSoC5/cyfitter_cfg.c **** 			{0xCCu, 0x70u},
1218:Generated_Source\PSoC5/cyfitter_cfg.c **** 			{0x9Au, 0x02u},
1219:Generated_Source\PSoC5/cyfitter_cfg.c **** 			{0x9Fu, 0x01u},
1220:Generated_Source\PSoC5/cyfitter_cfg.c **** 			{0xA6u, 0x40u},
1221:Generated_Source\PSoC5/cyfitter_cfg.c **** 			{0xA7u, 0x80u},
1222:Generated_Source\PSoC5/cyfitter_cfg.c **** 			{0xB3u, 0x20u},
1223:Generated_Source\PSoC5/cyfitter_cfg.c **** 			{0x9Au, 0x02u},
1224:Generated_Source\PSoC5/cyfitter_cfg.c **** 			{0x9Fu, 0x01u},
1225:Generated_Source\PSoC5/cyfitter_cfg.c **** 			{0xA6u, 0x40u},
1226:Generated_Source\PSoC5/cyfitter_cfg.c **** 			{0xA7u, 0x80u},
1227:Generated_Source\PSoC5/cyfitter_cfg.c **** 			{0x9Au, 0x02u},
1228:Generated_Source\PSoC5/cyfitter_cfg.c **** 			{0x9Fu, 0x01u},
1229:Generated_Source\PSoC5/cyfitter_cfg.c **** 			{0xA6u, 0x40u},
1230:Generated_Source\PSoC5/cyfitter_cfg.c **** 			{0xA7u, 0x80u},
1231:Generated_Source\PSoC5/cyfitter_cfg.c **** 			{0x7Cu, 0x08u},
1232:Generated_Source\PSoC5/cyfitter_cfg.c **** 			{0xDEu, 0x01u},
1233:Generated_Source\PSoC5/cyfitter_cfg.c **** 			{0x9Cu, 0x08u},
1234:Generated_Source\PSoC5/cyfitter_cfg.c **** 			{0x45u, 0x08u},
1235:Generated_Source\PSoC5/cyfitter_cfg.c **** 			{0x84u, 0x10u},
1236:Generated_Source\PSoC5/cyfitter_cfg.c **** 			{0x9Cu, 0x08u},
1237:Generated_Source\PSoC5/cyfitter_cfg.c **** 			{0xD0u, 0x01u},
1238:Generated_Source\PSoC5/cyfitter_cfg.c **** 			{0x08u, 0x08u},
1239:Generated_Source\PSoC5/cyfitter_cfg.c **** 			{0x0Bu, 0x04u},
1240:Generated_Source\PSoC5/cyfitter_cfg.c **** 			{0x0Fu, 0x40u},
1241:Generated_Source\PSoC5/cyfitter_cfg.c **** 			{0x89u, 0x80u},
ARM GAS  C:\Users\SEBAST~3\AppData\Local\Temp\ccQGNYwU.s 			page 37


1242:Generated_Source\PSoC5/cyfitter_cfg.c **** 			{0x9Cu, 0x10u},
1243:Generated_Source\PSoC5/cyfitter_cfg.c **** 			{0xA5u, 0x08u},
1244:Generated_Source\PSoC5/cyfitter_cfg.c **** 			{0xB4u, 0x08u},
1245:Generated_Source\PSoC5/cyfitter_cfg.c **** 			{0xC2u, 0x0Eu},
1246:Generated_Source\PSoC5/cyfitter_cfg.c **** 			{0xE2u, 0x04u},
1247:Generated_Source\PSoC5/cyfitter_cfg.c **** 			{0xE8u, 0x02u},
1248:Generated_Source\PSoC5/cyfitter_cfg.c **** 			{0x25u, 0x10u},
1249:Generated_Source\PSoC5/cyfitter_cfg.c **** 			{0xAAu, 0x02u},
1250:Generated_Source\PSoC5/cyfitter_cfg.c **** 			{0xAEu, 0x40u},
1251:Generated_Source\PSoC5/cyfitter_cfg.c **** 			{0xAFu, 0x81u},
1252:Generated_Source\PSoC5/cyfitter_cfg.c **** 			{0xC8u, 0x20u},
1253:Generated_Source\PSoC5/cyfitter_cfg.c **** 			{0xEAu, 0x40u},
1254:Generated_Source\PSoC5/cyfitter_cfg.c **** 			{0xECu, 0x20u},
1255:Generated_Source\PSoC5/cyfitter_cfg.c **** 			{0xEEu, 0x50u},
1256:Generated_Source\PSoC5/cyfitter_cfg.c **** 			{0xB5u, 0x10u},
1257:Generated_Source\PSoC5/cyfitter_cfg.c **** 			{0x09u, 0x80u},
1258:Generated_Source\PSoC5/cyfitter_cfg.c **** 			{0x0Cu, 0x10u},
1259:Generated_Source\PSoC5/cyfitter_cfg.c **** 			{0x9Cu, 0x10u},
1260:Generated_Source\PSoC5/cyfitter_cfg.c **** 			{0xA5u, 0x88u},
1261:Generated_Source\PSoC5/cyfitter_cfg.c **** 			{0xACu, 0x08u},
1262:Generated_Source\PSoC5/cyfitter_cfg.c **** 			{0xAFu, 0x44u},
1263:Generated_Source\PSoC5/cyfitter_cfg.c **** 			{0xC2u, 0x03u},
1264:Generated_Source\PSoC5/cyfitter_cfg.c **** 			{0x0Eu, 0x02u},
1265:Generated_Source\PSoC5/cyfitter_cfg.c **** 			{0x53u, 0x10u},
1266:Generated_Source\PSoC5/cyfitter_cfg.c **** 			{0x58u, 0x40u},
1267:Generated_Source\PSoC5/cyfitter_cfg.c **** 			{0x87u, 0x10u},
1268:Generated_Source\PSoC5/cyfitter_cfg.c **** 			{0x8Eu, 0x01u},
1269:Generated_Source\PSoC5/cyfitter_cfg.c **** 			{0x98u, 0x40u},
1270:Generated_Source\PSoC5/cyfitter_cfg.c **** 			{0xB0u, 0x40u},
1271:Generated_Source\PSoC5/cyfitter_cfg.c **** 			{0xB5u, 0x88u},
1272:Generated_Source\PSoC5/cyfitter_cfg.c **** 			{0xC2u, 0x01u},
1273:Generated_Source\PSoC5/cyfitter_cfg.c **** 			{0xD4u, 0x05u},
1274:Generated_Source\PSoC5/cyfitter_cfg.c **** 			{0xE2u, 0x08u},
1275:Generated_Source\PSoC5/cyfitter_cfg.c **** 			{0xE8u, 0x01u},
1276:Generated_Source\PSoC5/cyfitter_cfg.c **** 			{0xEAu, 0x08u},
1277:Generated_Source\PSoC5/cyfitter_cfg.c **** 			{0xECu, 0x08u},
1278:Generated_Source\PSoC5/cyfitter_cfg.c **** 			{0x00u, 0x18u},
1279:Generated_Source\PSoC5/cyfitter_cfg.c **** 			{0x0Cu, 0x18u},
1280:Generated_Source\PSoC5/cyfitter_cfg.c **** 			{0x0Eu, 0x08u},
1281:Generated_Source\PSoC5/cyfitter_cfg.c **** 			{0x10u, 0x18u},
1282:Generated_Source\PSoC5/cyfitter_cfg.c **** 			{0x1Cu, 0x18u},
1283:Generated_Source\PSoC5/cyfitter_cfg.c **** 			{0x00u, 0x2Au},
1284:Generated_Source\PSoC5/cyfitter_cfg.c **** 		};
1285:Generated_Source\PSoC5/cyfitter_cfg.c **** 
1286:Generated_Source\PSoC5/cyfitter_cfg.c **** 
1287:Generated_Source\PSoC5/cyfitter_cfg.c **** 
1288:Generated_Source\PSoC5/cyfitter_cfg.c **** 		CYPACKED typedef struct {
1289:Generated_Source\PSoC5/cyfitter_cfg.c **** 			void CYFAR *address;
1290:Generated_Source\PSoC5/cyfitter_cfg.c **** 			uint16 size;
1291:Generated_Source\PSoC5/cyfitter_cfg.c **** 		} CYPACKED_ATTR cfg_memset_t;
1292:Generated_Source\PSoC5/cyfitter_cfg.c **** 
1293:Generated_Source\PSoC5/cyfitter_cfg.c **** 		static const cfg_memset_t CYCODE cfg_memset_list[] = {
1294:Generated_Source\PSoC5/cyfitter_cfg.c **** 			/* address, size */
1295:Generated_Source\PSoC5/cyfitter_cfg.c **** 			{(void CYFAR *)(CYREG_PRT3_DR), 16u},
1296:Generated_Source\PSoC5/cyfitter_cfg.c **** 			{(void CYFAR *)(CYREG_PRT6_DR), 16u},
1297:Generated_Source\PSoC5/cyfitter_cfg.c **** 			{(void CYFAR *)(CYREG_PRT12_DR), 16u},
1298:Generated_Source\PSoC5/cyfitter_cfg.c **** 			{(void CYFAR *)(CYDEV_UCFG_B0_P0_U0_BASE), 4096u},
ARM GAS  C:\Users\SEBAST~3\AppData\Local\Temp\ccQGNYwU.s 			page 38


1299:Generated_Source\PSoC5/cyfitter_cfg.c **** 			{(void CYFAR *)(CYDEV_UCFG_B1_P2_U0_BASE), 2048u},
1300:Generated_Source\PSoC5/cyfitter_cfg.c **** 			{(void CYFAR *)(CYDEV_UCFG_DSI0_BASE), 2560u},
1301:Generated_Source\PSoC5/cyfitter_cfg.c **** 			{(void CYFAR *)(CYDEV_UCFG_DSI12_BASE), 512u},
1302:Generated_Source\PSoC5/cyfitter_cfg.c **** 			{(void CYFAR *)(CYREG_BCTL0_MDCLK_EN), 32u},
1303:Generated_Source\PSoC5/cyfitter_cfg.c **** 		};
1304:Generated_Source\PSoC5/cyfitter_cfg.c **** 
1305:Generated_Source\PSoC5/cyfitter_cfg.c **** 		uint8 CYDATA i;
1306:Generated_Source\PSoC5/cyfitter_cfg.c **** 
1307:Generated_Source\PSoC5/cyfitter_cfg.c **** 		/* Zero out critical memory blocks before beginning configuration */
1308:Generated_Source\PSoC5/cyfitter_cfg.c **** 		for (i = 0u; i < (sizeof(cfg_memset_list)/sizeof(cfg_memset_list[0])); i++)
 806              		.loc 1 1308 0
 807 0028 0023     		movs	r3, #0
 808 002a FB71     		strb	r3, [r7, #7]
 809 002c 13E0     		b	.L37
 810              	.L38:
 811              	.LBB4:
1309:Generated_Source\PSoC5/cyfitter_cfg.c **** 		{
1310:Generated_Source\PSoC5/cyfitter_cfg.c **** 			const cfg_memset_t CYCODE * CYDATA ms = &cfg_memset_list[i];
 812              		.loc 1 1310 0 discriminator 3
 813 002e FA79     		ldrb	r2, [r7, #7]	@ zero_extendqisi2
 814 0030 1346     		mov	r3, r2
 815 0032 5B00     		lsls	r3, r3, #1
 816 0034 1344     		add	r3, r3, r2
 817 0036 5B00     		lsls	r3, r3, #1
 818 0038 394A     		ldr	r2, .L39+8
 819 003a 1344     		add	r3, r3, r2
 820 003c 3B60     		str	r3, [r7]
1311:Generated_Source\PSoC5/cyfitter_cfg.c **** 			CYMEMZERO(ms->address, (size_t)(uint32)(ms->size));
 821              		.loc 1 1311 0 discriminator 3
 822 003e 3B68     		ldr	r3, [r7]
 823 0040 1A68     		ldr	r2, [r3]	@ unaligned
 824 0042 3B68     		ldr	r3, [r7]
 825 0044 9B88     		ldrh	r3, [r3, #4]	@ unaligned
 826 0046 9BB2     		uxth	r3, r3
 827 0048 1946     		mov	r1, r3
 828 004a 1046     		mov	r0, r2
 829 004c FFF7FEFF 		bl	CYMEMZERO
 830              	.LBE4:
1308:Generated_Source\PSoC5/cyfitter_cfg.c **** 		{
 831              		.loc 1 1308 0 discriminator 3
 832 0050 FB79     		ldrb	r3, [r7, #7]	@ zero_extendqisi2
 833 0052 0133     		adds	r3, r3, #1
 834 0054 FB71     		strb	r3, [r7, #7]
 835              	.L37:
1308:Generated_Source\PSoC5/cyfitter_cfg.c **** 		{
 836              		.loc 1 1308 0 is_stmt 0 discriminator 1
 837 0056 FB79     		ldrb	r3, [r7, #7]	@ zero_extendqisi2
 838 0058 072B     		cmp	r3, #7
 839 005a E8D9     		bls	.L38
1312:Generated_Source\PSoC5/cyfitter_cfg.c **** 		}
1313:Generated_Source\PSoC5/cyfitter_cfg.c **** 
1314:Generated_Source\PSoC5/cyfitter_cfg.c **** 		cfg_write_bytes32(cy_cfg_addr_table, cy_cfg_data_table);
 840              		.loc 1 1314 0 is_stmt 1
 841 005c 3149     		ldr	r1, .L39+12
 842 005e 3248     		ldr	r0, .L39+16
 843 0060 FFF7FEFF 		bl	cfg_write_bytes32
1315:Generated_Source\PSoC5/cyfitter_cfg.c **** 
ARM GAS  C:\Users\SEBAST~3\AppData\Local\Temp\ccQGNYwU.s 			page 39


1316:Generated_Source\PSoC5/cyfitter_cfg.c **** 		/* Perform normal device configuration. Order is not critical for these items. */
1317:Generated_Source\PSoC5/cyfitter_cfg.c **** 		CY_SET_XTND_REG8((void CYFAR *)(CYREG_DSM0_CR3), 0x0Au);
 844              		.loc 1 1317 0
 845 0064 314B     		ldr	r3, .L39+20
 846 0066 0A22     		movs	r2, #10
 847 0068 1A70     		strb	r2, [r3]
1318:Generated_Source\PSoC5/cyfitter_cfg.c **** 		CY_SET_XTND_REG8((void CYFAR *)(CYREG_DSM0_CLK), 0x01u);
 848              		.loc 1 1318 0
 849 006a 314B     		ldr	r3, .L39+24
 850 006c 0122     		movs	r2, #1
 851 006e 1A70     		strb	r2, [r3]
1319:Generated_Source\PSoC5/cyfitter_cfg.c **** 
1320:Generated_Source\PSoC5/cyfitter_cfg.c **** 		/* B0_P6_U0_CFG24 Starting address: CYDEV_UCFG_B0_P6_U0_CFG24 */
1321:Generated_Source\PSoC5/cyfitter_cfg.c **** 		CY_SET_XTND_REG32((void CYFAR *)(CYREG_B0_P6_U0_CFG24), 0x84000404u);
 852              		.loc 1 1321 0
 853 0070 304B     		ldr	r3, .L39+28
 854 0072 314A     		ldr	r2, .L39+32
 855 0074 1A60     		str	r2, [r3]
1322:Generated_Source\PSoC5/cyfitter_cfg.c **** 
1323:Generated_Source\PSoC5/cyfitter_cfg.c **** 		/* Enable digital routing */
1324:Generated_Source\PSoC5/cyfitter_cfg.c **** 		CY_SET_XTND_REG8((void CYFAR *)CYREG_BCTL0_BANK_CTL, CY_GET_XTND_REG8((void CYFAR *)CYREG_BCTL0_B
 856              		.loc 1 1324 0
 857 0076 314A     		ldr	r2, .L39+36
 858 0078 304B     		ldr	r3, .L39+36
 859 007a 1B78     		ldrb	r3, [r3]
 860 007c DBB2     		uxtb	r3, r3
 861 007e 43F00203 		orr	r3, r3, #2
 862 0082 DBB2     		uxtb	r3, r3
 863 0084 1370     		strb	r3, [r2]
1325:Generated_Source\PSoC5/cyfitter_cfg.c **** 		CY_SET_XTND_REG8((void CYFAR *)CYREG_BCTL1_BANK_CTL, CY_GET_XTND_REG8((void CYFAR *)CYREG_BCTL1_B
 864              		.loc 1 1325 0
 865 0086 2E4A     		ldr	r2, .L39+40
 866 0088 2D4B     		ldr	r3, .L39+40
 867 008a 1B78     		ldrb	r3, [r3]
 868 008c DBB2     		uxtb	r3, r3
 869 008e 43F00203 		orr	r3, r3, #2
 870 0092 DBB2     		uxtb	r3, r3
 871 0094 1370     		strb	r3, [r2]
1326:Generated_Source\PSoC5/cyfitter_cfg.c **** 
1327:Generated_Source\PSoC5/cyfitter_cfg.c **** 		/* Enable UDB array */
1328:Generated_Source\PSoC5/cyfitter_cfg.c **** 		CY_SET_XTND_REG8((void CYFAR *)CYREG_PM_ACT_CFG0, CY_GET_XTND_REG8((void CYFAR *)CYREG_PM_ACT_CFG
 872              		.loc 1 1328 0
 873 0096 2B4A     		ldr	r2, .L39+44
 874 0098 2A4B     		ldr	r3, .L39+44
 875 009a 1B78     		ldrb	r3, [r3]
 876 009c DBB2     		uxtb	r3, r3
 877 009e 43F04003 		orr	r3, r3, #64
 878 00a2 DBB2     		uxtb	r3, r3
 879 00a4 1370     		strb	r3, [r2]
1329:Generated_Source\PSoC5/cyfitter_cfg.c **** 		CY_SET_XTND_REG8((void CYFAR *)CYREG_PM_AVAIL_CR2, CY_GET_XTND_REG8((void CYFAR *)CYREG_PM_AVAIL_
 880              		.loc 1 1329 0
 881 00a6 284A     		ldr	r2, .L39+48
 882 00a8 274B     		ldr	r3, .L39+48
 883 00aa 1B78     		ldrb	r3, [r3]
 884 00ac DBB2     		uxtb	r3, r3
 885 00ae 43F01003 		orr	r3, r3, #16
 886 00b2 DBB2     		uxtb	r3, r3
ARM GAS  C:\Users\SEBAST~3\AppData\Local\Temp\ccQGNYwU.s 			page 40


 887 00b4 1370     		strb	r3, [r2]
 888              	.LBE3:
1330:Generated_Source\PSoC5/cyfitter_cfg.c **** 	}
1331:Generated_Source\PSoC5/cyfitter_cfg.c **** 
1332:Generated_Source\PSoC5/cyfitter_cfg.c **** 
1333:Generated_Source\PSoC5/cyfitter_cfg.c **** 	/* Perform second pass device configuration. These items must be configured in specific order afte
1334:Generated_Source\PSoC5/cyfitter_cfg.c **** 	CYCONFIGCPYCODE((void CYFAR *)(CYREG_PRT0_DM0), (const void CYCODE *)(BS_IOPINS0_0_VAL), 8u);
 889              		.loc 1 1334 0
 890 00b6 0822     		movs	r2, #8
 891 00b8 2449     		ldr	r1, .L39+52
 892 00ba 2548     		ldr	r0, .L39+56
 893 00bc FFF7FEFF 		bl	CYCONFIGCPYCODE
1335:Generated_Source\PSoC5/cyfitter_cfg.c **** 	CYCONFIGCPYCODE((void CYFAR *)(CYREG_PRT15_DR), (const void CYCODE *)(BS_IOPINS0_8_VAL), 10u);
 894              		.loc 1 1335 0
 895 00c0 0A22     		movs	r2, #10
 896 00c2 2449     		ldr	r1, .L39+60
 897 00c4 2448     		ldr	r0, .L39+64
 898 00c6 FFF7FEFF 		bl	CYCONFIGCPYCODE
1336:Generated_Source\PSoC5/cyfitter_cfg.c **** 	CYCONFIGCPYCODE((void CYFAR *)(CYREG_PRT1_DR), (const void CYCODE *)(BS_IOPINS0_1_VAL), 10u);
 899              		.loc 1 1336 0
 900 00ca 0A22     		movs	r2, #10
 901 00cc 2349     		ldr	r1, .L39+68
 902 00ce 2448     		ldr	r0, .L39+72
 903 00d0 FFF7FEFF 		bl	CYCONFIGCPYCODE
1337:Generated_Source\PSoC5/cyfitter_cfg.c **** 	CYCONFIGCPYCODE((void CYFAR *)(CYREG_PRT2_DM0), (const void CYCODE *)(BS_IOPINS0_2_VAL), 8u);
 904              		.loc 1 1337 0
 905 00d4 0822     		movs	r2, #8
 906 00d6 2349     		ldr	r1, .L39+76
 907 00d8 2348     		ldr	r0, .L39+80
 908 00da FFF7FEFF 		bl	CYCONFIGCPYCODE
1338:Generated_Source\PSoC5/cyfitter_cfg.c **** 	CYCONFIGCPYCODE((void CYFAR *)(CYREG_PRT4_DM0), (const void CYCODE *)(BS_IOPINS0_4_VAL), 8u);
 909              		.loc 1 1338 0
 910 00de 0822     		movs	r2, #8
 911 00e0 2249     		ldr	r1, .L39+84
 912 00e2 2348     		ldr	r0, .L39+88
 913 00e4 FFF7FEFF 		bl	CYCONFIGCPYCODE
1339:Generated_Source\PSoC5/cyfitter_cfg.c **** 	CYCONFIGCPYCODE((void CYFAR *)(CYREG_PRT5_DM0), (const void CYCODE *)(BS_IOPINS0_5_VAL), 8u);
 914              		.loc 1 1339 0
 915 00e8 0822     		movs	r2, #8
 916 00ea 2249     		ldr	r1, .L39+92
 917 00ec 2248     		ldr	r0, .L39+96
 918 00ee FFF7FEFF 		bl	CYCONFIGCPYCODE
1340:Generated_Source\PSoC5/cyfitter_cfg.c **** 	/* Switch Boost to the precision bandgap reference from its internal reference */
1341:Generated_Source\PSoC5/cyfitter_cfg.c **** 	CY_SET_REG8((void CYXDATA *)CYREG_BOOST_CR2, (CY_GET_REG8((void CYXDATA *)CYREG_BOOST_CR2) | 0x08u
 919              		.loc 1 1341 0
 920 00f2 224A     		ldr	r2, .L39+100
 921 00f4 214B     		ldr	r3, .L39+100
 922 00f6 1B78     		ldrb	r3, [r3]
 923 00f8 DBB2     		uxtb	r3, r3
 924 00fa 43F00803 		orr	r3, r3, #8
 925 00fe DBB2     		uxtb	r3, r3
 926 0100 1370     		strb	r3, [r2]
1342:Generated_Source\PSoC5/cyfitter_cfg.c **** 
1343:Generated_Source\PSoC5/cyfitter_cfg.c **** 	/* Perform basic analog initialization to defaults */
1344:Generated_Source\PSoC5/cyfitter_cfg.c **** 	AnalogSetDefault();
 927              		.loc 1 1344 0
 928 0102 FFF7FEFF 		bl	AnalogSetDefault
ARM GAS  C:\Users\SEBAST~3\AppData\Local\Temp\ccQGNYwU.s 			page 41


1345:Generated_Source\PSoC5/cyfitter_cfg.c **** 
1346:Generated_Source\PSoC5/cyfitter_cfg.c **** 	/* Configure alternate active mode */
1347:Generated_Source\PSoC5/cyfitter_cfg.c **** 	CYCONFIGCPY((void CYFAR *)CYDEV_PM_STBY_BASE, (const void CYFAR *)CYDEV_PM_ACT_BASE, 14u);
 929              		.loc 1 1347 0
 930 0106 0E22     		movs	r2, #14
 931 0108 0E49     		ldr	r1, .L39+44
 932 010a 1D48     		ldr	r0, .L39+104
 933 010c FFF7FEFF 		bl	CYCONFIGCPY
1348:Generated_Source\PSoC5/cyfitter_cfg.c **** }
 934              		.loc 1 1348 0
 935 0110 00BF     		nop
 936 0112 0837     		adds	r7, r7, #8
 937              		.cfi_def_cfa_offset 8
 938 0114 BD46     		mov	sp, r7
 939              		.cfi_def_cfa_register 13
 940              		@ sp needed
 941 0116 80BD     		pop	{r7, pc}
 942              	.L40:
 943              		.align	2
 944              	.L39:
 945 0118 00480040 		.word	1073760256
 946 011c E8460040 		.word	1073759976
 947 0120 14000000 		.word	cfg_memset_list.5068
 948 0124 C0000000 		.word	cy_cfg_data_table.5063
 949 0128 44000000 		.word	cy_cfg_addr_table.5062
 950 012c 83580040 		.word	1073764483
 951 0130 075B0040 		.word	1073765127
 952 0134 580C0140 		.word	1073810520
 953 0138 04040084 		.word	-2080373756
 954 013c 03500140 		.word	1073827843
 955 0140 13500140 		.word	1073827859
 956 0144 A0430040 		.word	1073759136
 957 0148 C2430040 		.word	1073759170
 958 014c F0060000 		.word	BS_IOPINS0_0_VAL.5056
 959 0150 02510040 		.word	1073762562
 960 0154 F8060000 		.word	BS_IOPINS0_8_VAL.5057
 961 0158 F0510040 		.word	1073762800
 962 015c 04070000 		.word	BS_IOPINS0_1_VAL.5058
 963 0160 10510040 		.word	1073762576
 964 0164 10070000 		.word	BS_IOPINS0_2_VAL.5059
 965 0168 22510040 		.word	1073762594
 966 016c 18070000 		.word	BS_IOPINS0_4_VAL.5060
 967 0170 42510040 		.word	1073762626
 968 0174 20070000 		.word	BS_IOPINS0_5_VAL.5061
 969 0178 52510040 		.word	1073762642
 970 017c 22430040 		.word	1073759010
 971 0180 B0430040 		.word	1073759152
 972              		.cfi_endproc
 973              	.LFE10:
 974              		.size	cyfitter_cfg, .-cyfitter_cfg
 975              		.section	.rodata
 976 000a 0000     		.align	2
 977              		.type	BS_CYDEV_CLKDIST_ACFG0_CFG0_VAL.5029, %object
 978              		.size	BS_CYDEV_CLKDIST_ACFG0_CFG0_VAL.5029, 8
 979              	BS_CYDEV_CLKDIST_ACFG0_CFG0_VAL.5029:
 980 000c 05       		.byte	5
 981 000d 00       		.byte	0
ARM GAS  C:\Users\SEBAST~3\AppData\Local\Temp\ccQGNYwU.s 			page 42


 982 000e 14       		.byte	20
 983 000f 01       		.byte	1
 984 0010 8F       		.byte	-113
 985 0011 01       		.byte	1
 986 0012 18       		.byte	24
 987 0013 01       		.byte	1
 988              		.align	2
 989              		.type	cfg_memset_list.5068, %object
 990              		.size	cfg_memset_list.5068, 48
 991              	cfg_memset_list.5068:
 992 0014 30510040 		.word	1073762608
 993 0018 1000     		.short	16
 994 001a 60510040 		.4byte	1073762656
 995 001e 1000     		.short	16
 996 0020 C0510040 		.word	1073762752
 997 0024 1000     		.short	16
 998 0026 00000140 		.4byte	1073807360
 999 002a 0010     		.short	4096
 1000 002c 00140140 		.word	1073812480
 1001 0030 0008     		.short	2048
 1002 0032 00400140 		.4byte	1073823744
 1003 0036 000A     		.short	2560
 1004 0038 004C0140 		.word	1073826816
 1005 003c 0002     		.short	512
 1006 003e 00500140 		.4byte	1073827840
 1007 0042 2000     		.short	32
 1008              		.align	2
 1009              		.type	cy_cfg_addr_table.5062, %object
 1010              		.size	cy_cfg_addr_table.5062, 124
 1011              	cy_cfg_addr_table.5062:
 1012 0044 01450040 		.word	1073759489
 1013 0048 02520040 		.word	1073762818
 1014 004c 03640040 		.word	1073767427
 1015 0050 03650040 		.word	1073767683
 1016 0054 01030140 		.word	1073808129
 1017 0058 53080140 		.word	1073809491
 1018 005c 39090140 		.word	1073809721
 1019 0060 610A0140 		.word	1073810017
 1020 0064 400B0140 		.word	1073810240
 1021 0068 3B0C0140 		.word	1073810491
 1022 006c 330D0140 		.word	1073810739
 1023 0070 01150140 		.word	1073812737
 1024 0074 03170140 		.word	1073813251
 1025 0078 52180140 		.word	1073813586
 1026 007c 3E190140 		.word	1073813822
 1027 0080 5B1A0140 		.word	1073814107
 1028 0084 3C1B0140 		.word	1073814332
 1029 0088 06400140 		.word	1073823750
 1030 008c 05410140 		.word	1073824005
 1031 0090 04420140 		.word	1073824260
 1032 0094 04430140 		.word	1073824516
 1033 0098 02440140 		.word	1073824770
 1034 009c 01450140 		.word	1073825025
 1035 00a0 04460140 		.word	1073825284
 1036 00a4 0A470140 		.word	1073825546
 1037 00a8 08480140 		.word	1073825800
 1038 00ac 01490140 		.word	1073826049
ARM GAS  C:\Users\SEBAST~3\AppData\Local\Temp\ccQGNYwU.s 			page 43


 1039 00b0 074C0140 		.word	1073826823
 1040 00b4 0E4D0140 		.word	1073827086
 1041 00b8 05500140 		.word	1073827845
 1042 00bc 01510140 		.word	1073828097
 1043              		.align	2
 1044              		.type	cy_cfg_data_table.5063, %object
 1045              		.size	cy_cfg_data_table.5063, 1584
 1046              	cy_cfg_data_table.5063:
 1047 00c0 7E       		.byte	126
 1048 00c1 02       		.byte	2
 1049 00c2 29       		.byte	41
 1050 00c3 08       		.byte	8
 1051 00c4 7C       		.byte	124
 1052 00c5 40       		.byte	64
 1053 00c6 89       		.byte	-119
 1054 00c7 0D       		.byte	13
 1055 00c8 8C       		.byte	-116
 1056 00c9 6F       		.byte	111
 1057 00ca 8D       		.byte	-115
 1058 00cb 0F       		.byte	15
 1059 00cc 88       		.byte	-120
 1060 00cd 0D       		.byte	13
 1061 00ce 8A       		.byte	-118
 1062 00cf 0D       		.byte	13
 1063 00d0 8B       		.byte	-117
 1064 00d1 0D       		.byte	13
 1065 00d2 EC       		.byte	-20
 1066 00d3 20       		.byte	32
 1067 00d4 00       		.byte	0
 1068 00d5 96       		.byte	-106
 1069 00d6 02       		.byte	2
 1070 00d7 68       		.byte	104
 1071 00d8 04       		.byte	4
 1072 00d9 7F       		.byte	127
 1073 00da 05       		.byte	5
 1074 00db 01       		.byte	1
 1075 00dc 08       		.byte	8
 1076 00dd C5       		.byte	-59
 1077 00de 09       		.byte	9
 1078 00df 04       		.byte	4
 1079 00e0 0A       		.byte	10
 1080 00e1 3A       		.byte	58
 1081 00e2 0B       		.byte	11
 1082 00e3 08       		.byte	8
 1083 00e4 0D       		.byte	13
 1084 00e5 04       		.byte	4
 1085 00e6 0F       		.byte	15
 1086 00e7 08       		.byte	8
 1087 00e8 13       		.byte	19
 1088 00e9 01       		.byte	1
 1089 00ea 14       		.byte	20
 1090 00eb FE       		.byte	-2
 1091 00ec 15       		.byte	21
 1092 00ed 01       		.byte	1
 1093 00ee 16       		.byte	22
 1094 00ef 01       		.byte	1
 1095 00f0 18       		.byte	24
ARM GAS  C:\Users\SEBAST~3\AppData\Local\Temp\ccQGNYwU.s 			page 44


 1096 00f1 A3       		.byte	-93
 1097 00f2 19       		.byte	25
 1098 00f3 04       		.byte	4
 1099 00f4 1A       		.byte	26
 1100 00f5 5C       		.byte	92
 1101 00f6 1B       		.byte	27
 1102 00f7 28       		.byte	40
 1103 00f8 23       		.byte	35
 1104 00f9 02       		.byte	2
 1105 00fa 24       		.byte	36
 1106 00fb 0E       		.byte	14
 1107 00fc 25       		.byte	37
 1108 00fd 01       		.byte	1
 1109 00fe 26       		.byte	38
 1110 00ff F0       		.byte	-16
 1111 0100 29       		.byte	41
 1112 0101 09       		.byte	9
 1113 0102 2A       		.byte	42
 1114 0103 01       		.byte	1
 1115 0104 2B       		.byte	43
 1116 0105 04       		.byte	4
 1117 0106 2F       		.byte	47
 1118 0107 10       		.byte	16
 1119 0108 31       		.byte	49
 1120 0109 20       		.byte	32
 1121 010a 33       		.byte	51
 1122 010b 03       		.byte	3
 1123 010c 35       		.byte	53
 1124 010d 0C       		.byte	12
 1125 010e 36       		.byte	54
 1126 010f FF       		.byte	-1
 1127 0110 37       		.byte	55
 1128 0111 10       		.byte	16
 1129 0112 3B       		.byte	59
 1130 0113 20       		.byte	32
 1131 0114 3E       		.byte	62
 1132 0115 40       		.byte	64
 1133 0116 52       		.byte	82
 1134 0117 80       		.byte	-128
 1135 0118 58       		.byte	88
 1136 0119 04       		.byte	4
 1137 011a 59       		.byte	89
 1138 011b 04       		.byte	4
 1139 011c 5B       		.byte	91
 1140 011d 04       		.byte	4
 1141 011e 5C       		.byte	92
 1142 011f 30       		.byte	48
 1143 0120 5D       		.byte	93
 1144 0121 40       		.byte	64
 1145 0122 5F       		.byte	95
 1146 0123 01       		.byte	1
 1147 0124 8F       		.byte	-113
 1148 0125 01       		.byte	1
 1149 0126 91       		.byte	-111
 1150 0127 01       		.byte	1
 1151 0128 92       		.byte	-110
 1152 0129 02       		.byte	2
ARM GAS  C:\Users\SEBAST~3\AppData\Local\Temp\ccQGNYwU.s 			page 45


 1153 012a 9E       		.byte	-98
 1154 012b 04       		.byte	4
 1155 012c A2       		.byte	-94
 1156 012d 01       		.byte	1
 1157 012e A6       		.byte	-90
 1158 012f 04       		.byte	4
 1159 0130 AF       		.byte	-81
 1160 0131 02       		.byte	2
 1161 0132 B0       		.byte	-80
 1162 0133 01       		.byte	1
 1163 0134 B3       		.byte	-77
 1164 0135 02       		.byte	2
 1165 0136 B4       		.byte	-76
 1166 0137 04       		.byte	4
 1167 0138 B6       		.byte	-74
 1168 0139 02       		.byte	2
 1169 013a B7       		.byte	-73
 1170 013b 01       		.byte	1
 1171 013c BE       		.byte	-66
 1172 013d 10       		.byte	16
 1173 013e C0       		.byte	-64
 1174 013f 10       		.byte	16
 1175 0140 C1       		.byte	-63
 1176 0141 06       		.byte	6
 1177 0142 C5       		.byte	-59
 1178 0143 D2       		.byte	-46
 1179 0144 C6       		.byte	-58
 1180 0145 01       		.byte	1
 1181 0146 C7       		.byte	-57
 1182 0147 02       		.byte	2
 1183 0148 C8       		.byte	-56
 1184 0149 17       		.byte	23
 1185 014a C9       		.byte	-55
 1186 014b FF       		.byte	-1
 1187 014c CA       		.byte	-54
 1188 014d FF       		.byte	-1
 1189 014e CB       		.byte	-53
 1190 014f FF       		.byte	-1
 1191 0150 CD       		.byte	-51
 1192 0151 A0       		.byte	-96
 1193 0152 CF       		.byte	-49
 1194 0153 04       		.byte	4
 1195 0154 D0       		.byte	-48
 1196 0155 18       		.byte	24
 1197 0156 D2       		.byte	-46
 1198 0157 80       		.byte	-128
 1199 0158 D4       		.byte	-44
 1200 0159 05       		.byte	5
 1201 015a D8       		.byte	-40
 1202 015b 04       		.byte	4
 1203 015c D9       		.byte	-39
 1204 015d 04       		.byte	4
 1205 015e DA       		.byte	-38
 1206 015f 04       		.byte	4
 1207 0160 DB       		.byte	-37
 1208 0161 04       		.byte	4
 1209 0162 DC       		.byte	-36
ARM GAS  C:\Users\SEBAST~3\AppData\Local\Temp\ccQGNYwU.s 			page 46


 1210 0163 44       		.byte	68
 1211 0164 DD       		.byte	-35
 1212 0165 44       		.byte	68
 1213 0166 DF       		.byte	-33
 1214 0167 01       		.byte	1
 1215 0168 E0       		.byte	-32
 1216 0169 40       		.byte	64
 1217 016a E2       		.byte	-30
 1218 016b C0       		.byte	-64
 1219 016c E4       		.byte	-28
 1220 016d 40       		.byte	64
 1221 016e E5       		.byte	-27
 1222 016f 40       		.byte	64
 1223 0170 E6       		.byte	-26
 1224 0171 C0       		.byte	-64
 1225 0172 E8       		.byte	-24
 1226 0173 C0       		.byte	-64
 1227 0174 EA       		.byte	-22
 1228 0175 C0       		.byte	-64
 1229 0176 EC       		.byte	-20
 1230 0177 C0       		.byte	-64
 1231 0178 EE       		.byte	-18
 1232 0179 C0       		.byte	-64
 1233 017a 04       		.byte	4
 1234 017b 24       		.byte	36
 1235 017c 05       		.byte	5
 1236 017d 02       		.byte	2
 1237 017e 07       		.byte	7
 1238 017f 08       		.byte	8
 1239 0180 09       		.byte	9
 1240 0181 02       		.byte	2
 1241 0182 0A       		.byte	10
 1242 0183 01       		.byte	1
 1243 0184 0E       		.byte	14
 1244 0185 20       		.byte	32
 1245 0186 0F       		.byte	15
 1246 0187 04       		.byte	4
 1247 0188 10       		.byte	16
 1248 0189 A0       		.byte	-96
 1249 018a 16       		.byte	22
 1250 018b 20       		.byte	32
 1251 018c 17       		.byte	23
 1252 018d 14       		.byte	20
 1253 018e 19       		.byte	25
 1254 018f 80       		.byte	-128
 1255 0190 1A       		.byte	26
 1256 0191 09       		.byte	9
 1257 0192 1B       		.byte	27
 1258 0193 02       		.byte	2
 1259 0194 1F       		.byte	31
 1260 0195 80       		.byte	-128
 1261 0196 21       		.byte	33
 1262 0197 04       		.byte	4
 1263 0198 22       		.byte	34
 1264 0199 40       		.byte	64
 1265 019a 24       		.byte	36
 1266 019b 40       		.byte	64
ARM GAS  C:\Users\SEBAST~3\AppData\Local\Temp\ccQGNYwU.s 			page 47


 1267 019c 25       		.byte	37
 1268 019d 10       		.byte	16
 1269 019e 26       		.byte	38
 1270 019f 84       		.byte	-124
 1271 01a0 27       		.byte	39
 1272 01a1 14       		.byte	20
 1273 01a2 2A       		.byte	42
 1274 01a3 40       		.byte	64
 1275 01a4 2D       		.byte	45
 1276 01a5 40       		.byte	64
 1277 01a6 2E       		.byte	46
 1278 01a7 20       		.byte	32
 1279 01a8 2F       		.byte	47
 1280 01a9 A0       		.byte	-96
 1281 01aa 32       		.byte	50
 1282 01ab 20       		.byte	32
 1283 01ac 33       		.byte	51
 1284 01ad 22       		.byte	34
 1285 01ae 35       		.byte	53
 1286 01af 02       		.byte	2
 1287 01b0 37       		.byte	55
 1288 01b1 28       		.byte	40
 1289 01b2 38       		.byte	56
 1290 01b3 80       		.byte	-128
 1291 01b4 3C       		.byte	60
 1292 01b5 60       		.byte	96
 1293 01b6 3F       		.byte	63
 1294 01b7 04       		.byte	4
 1295 01b8 42       		.byte	66
 1296 01b9 01       		.byte	1
 1297 01ba 48       		.byte	72
 1298 01bb 28       		.byte	40
 1299 01bc 49       		.byte	73
 1300 01bd 01       		.byte	1
 1301 01be 50       		.byte	80
 1302 01bf C8       		.byte	-56
 1303 01c0 59       		.byte	89
 1304 01c1 01       		.byte	1
 1305 01c2 5A       		.byte	90
 1306 01c3 88       		.byte	-120
 1307 01c4 5E       		.byte	94
 1308 01c5 80       		.byte	-128
 1309 01c6 71       		.byte	113
 1310 01c7 02       		.byte	2
 1311 01c8 77       		.byte	119
 1312 01c9 40       		.byte	64
 1313 01ca 8A       		.byte	-118
 1314 01cb 40       		.byte	64
 1315 01cc 90       		.byte	-112
 1316 01cd 24       		.byte	36
 1317 01ce 93       		.byte	-109
 1318 01cf 24       		.byte	36
 1319 01d0 9D       		.byte	-99
 1320 01d1 02       		.byte	2
 1321 01d2 A0       		.byte	-96
 1322 01d3 10       		.byte	16
 1323 01d4 A5       		.byte	-91
ARM GAS  C:\Users\SEBAST~3\AppData\Local\Temp\ccQGNYwU.s 			page 48


 1324 01d5 10       		.byte	16
 1325 01d6 A6       		.byte	-90
 1326 01d7 34       		.byte	52
 1327 01d8 B4       		.byte	-76
 1328 01d9 01       		.byte	1
 1329 01da C0       		.byte	-64
 1330 01db 70       		.byte	112
 1331 01dc C2       		.byte	-62
 1332 01dd 69       		.byte	105
 1333 01de C4       		.byte	-60
 1334 01df 6C       		.byte	108
 1335 01e0 CA       		.byte	-54
 1336 01e1 F8       		.byte	-8
 1337 01e2 CC       		.byte	-52
 1338 01e3 E1       		.byte	-31
 1339 01e4 CE       		.byte	-50
 1340 01e5 78       		.byte	120
 1341 01e6 D0       		.byte	-48
 1342 01e7 08       		.byte	8
 1343 01e8 D2       		.byte	-46
 1344 01e9 04       		.byte	4
 1345 01ea D6       		.byte	-42
 1346 01eb 1B       		.byte	27
 1347 01ec 00       		.byte	0
 1348 01ed 30       		.byte	48
 1349 01ee 02       		.byte	2
 1350 01ef C9       		.byte	-55
 1351 01f0 04       		.byte	4
 1352 01f1 FD       		.byte	-3
 1353 01f2 06       		.byte	6
 1354 01f3 02       		.byte	2
 1355 01f4 08       		.byte	8
 1356 01f5 9E       		.byte	-98
 1357 01f6 0A       		.byte	10
 1358 01f7 60       		.byte	96
 1359 01f8 14       		.byte	20
 1360 01f9 73       		.byte	115
 1361 01fa 18       		.byte	24
 1362 01fb 94       		.byte	-108
 1363 01fc 1A       		.byte	26
 1364 01fd 60       		.byte	96
 1365 01fe 24       		.byte	36
 1366 01ff CF       		.byte	-49
 1367 0200 26       		.byte	38
 1368 0201 30       		.byte	48
 1369 0202 2A       		.byte	42
 1370 0203 0F       		.byte	15
 1371 0204 30       		.byte	48
 1372 0205 FF       		.byte	-1
 1373 0206 38       		.byte	56
 1374 0207 80       		.byte	-128
 1375 0208 3E       		.byte	62
 1376 0209 41       		.byte	65
 1377 020a 40       		.byte	64
 1378 020b 34       		.byte	52
 1379 020c 41       		.byte	65
 1380 020d 06       		.byte	6
ARM GAS  C:\Users\SEBAST~3\AppData\Local\Temp\ccQGNYwU.s 			page 49


 1381 020e 49       		.byte	73
 1382 020f FF       		.byte	-1
 1383 0210 4A       		.byte	74
 1384 0211 FF       		.byte	-1
 1385 0212 4B       		.byte	75
 1386 0213 FF       		.byte	-1
 1387 0214 4D       		.byte	77
 1388 0215 A0       		.byte	-96
 1389 0216 4F       		.byte	79
 1390 0217 01       		.byte	1
 1391 0218 50       		.byte	80
 1392 0219 18       		.byte	24
 1393 021a 58       		.byte	88
 1394 021b 04       		.byte	4
 1395 021c 5A       		.byte	90
 1396 021d 04       		.byte	4
 1397 021e 5B       		.byte	91
 1398 021f 04       		.byte	4
 1399 0220 5D       		.byte	93
 1400 0221 03       		.byte	3
 1401 0222 5F       		.byte	95
 1402 0223 01       		.byte	1
 1403 0224 60       		.byte	96
 1404 0225 40       		.byte	64
 1405 0226 62       		.byte	98
 1406 0227 80       		.byte	-128
 1407 0228 64       		.byte	100
 1408 0229 40       		.byte	64
 1409 022a 65       		.byte	101
 1410 022b 40       		.byte	64
 1411 022c 66       		.byte	102
 1412 022d 80       		.byte	-128
 1413 022e 68       		.byte	104
 1414 022f 40       		.byte	64
 1415 0230 6A       		.byte	106
 1416 0231 80       		.byte	-128
 1417 0232 6C       		.byte	108
 1418 0233 40       		.byte	64
 1419 0234 6D       		.byte	109
 1420 0235 20       		.byte	32
 1421 0236 6E       		.byte	110
 1422 0237 80       		.byte	-128
 1423 0238 82       		.byte	-126
 1424 0239 10       		.byte	16
 1425 023a 83       		.byte	-125
 1426 023b 01       		.byte	1
 1427 023c 84       		.byte	-124
 1428 023d 07       		.byte	7
 1429 023e 88       		.byte	-120
 1430 023f 0C       		.byte	12
 1431 0240 89       		.byte	-119
 1432 0241 02       		.byte	2
 1433 0242 8C       		.byte	-116
 1434 0243 10       		.byte	16
 1435 0244 90       		.byte	-112
 1436 0245 01       		.byte	1
 1437 0246 93       		.byte	-109
ARM GAS  C:\Users\SEBAST~3\AppData\Local\Temp\ccQGNYwU.s 			page 50


 1438 0247 02       		.byte	2
 1439 0248 94       		.byte	-108
 1440 0249 0A       		.byte	10
 1441 024a 95       		.byte	-107
 1442 024b 02       		.byte	2
 1443 024c 9A       		.byte	-102
 1444 024d 10       		.byte	16
 1445 024e 9E       		.byte	-98
 1446 024f 20       		.byte	32
 1447 0250 A0       		.byte	-96
 1448 0251 01       		.byte	1
 1449 0252 A1       		.byte	-95
 1450 0253 04       		.byte	4
 1451 0254 A4       		.byte	-92
 1452 0255 20       		.byte	32
 1453 0256 A8       		.byte	-88
 1454 0257 0C       		.byte	12
 1455 0258 AD       		.byte	-83
 1456 0259 04       		.byte	4
 1457 025a B0       		.byte	-80
 1458 025b 01       		.byte	1
 1459 025c B2       		.byte	-78
 1460 025d 10       		.byte	16
 1461 025e B3       		.byte	-77
 1462 025f 02       		.byte	2
 1463 0260 B4       		.byte	-76
 1464 0261 0E       		.byte	14
 1465 0262 B5       		.byte	-75
 1466 0263 01       		.byte	1
 1467 0264 B6       		.byte	-74
 1468 0265 20       		.byte	32
 1469 0266 B7       		.byte	-73
 1470 0267 04       		.byte	4
 1471 0268 B8       		.byte	-72
 1472 0269 22       		.byte	34
 1473 026a B9       		.byte	-71
 1474 026b 80       		.byte	-128
 1475 026c BE       		.byte	-66
 1476 026d 45       		.byte	69
 1477 026e BF       		.byte	-65
 1478 026f 04       		.byte	4
 1479 0270 C0       		.byte	-64
 1480 0271 34       		.byte	52
 1481 0272 C1       		.byte	-63
 1482 0273 06       		.byte	6
 1483 0274 C5       		.byte	-59
 1484 0275 40       		.byte	64
 1485 0276 C6       		.byte	-58
 1486 0277 C2       		.byte	-62
 1487 0278 C7       		.byte	-57
 1488 0279 3E       		.byte	62
 1489 027a C8       		.byte	-56
 1490 027b 3E       		.byte	62
 1491 027c C9       		.byte	-55
 1492 027d FF       		.byte	-1
 1493 027e CA       		.byte	-54
 1494 027f FF       		.byte	-1
ARM GAS  C:\Users\SEBAST~3\AppData\Local\Temp\ccQGNYwU.s 			page 51


 1495 0280 CB       		.byte	-53
 1496 0281 FF       		.byte	-1
 1497 0282 CD       		.byte	-51
 1498 0283 AF       		.byte	-81
 1499 0284 CE       		.byte	-50
 1500 0285 07       		.byte	7
 1501 0286 CF       		.byte	-49
 1502 0287 01       		.byte	1
 1503 0288 D0       		.byte	-48
 1504 0289 18       		.byte	24
 1505 028a D2       		.byte	-46
 1506 028b 80       		.byte	-128
 1507 028c D8       		.byte	-40
 1508 028d 04       		.byte	4
 1509 028e D9       		.byte	-39
 1510 028f 04       		.byte	4
 1511 0290 DA       		.byte	-38
 1512 0291 04       		.byte	4
 1513 0292 DB       		.byte	-37
 1514 0293 04       		.byte	4
 1515 0294 DC       		.byte	-36
 1516 0295 33       		.byte	51
 1517 0296 DD       		.byte	-35
 1518 0297 33       		.byte	51
 1519 0298 DF       		.byte	-33
 1520 0299 01       		.byte	1
 1521 029a E0       		.byte	-32
 1522 029b 40       		.byte	64
 1523 029c E2       		.byte	-30
 1524 029d 80       		.byte	-128
 1525 029e E4       		.byte	-28
 1526 029f 40       		.byte	64
 1527 02a0 E5       		.byte	-27
 1528 02a1 40       		.byte	64
 1529 02a2 E6       		.byte	-26
 1530 02a3 80       		.byte	-128
 1531 02a4 E8       		.byte	-24
 1532 02a5 40       		.byte	64
 1533 02a6 EA       		.byte	-22
 1534 02a7 80       		.byte	-128
 1535 02a8 EC       		.byte	-20
 1536 02a9 40       		.byte	64
 1537 02aa ED       		.byte	-19
 1538 02ab 20       		.byte	32
 1539 02ac EE       		.byte	-18
 1540 02ad 80       		.byte	-128
 1541 02ae 00       		.byte	0
 1542 02af 10       		.byte	16
 1543 02b0 01       		.byte	1
 1544 02b1 02       		.byte	2
 1545 02b2 02       		.byte	2
 1546 02b3 60       		.byte	96
 1547 02b4 04       		.byte	4
 1548 02b5 A4       		.byte	-92
 1549 02b6 07       		.byte	7
 1550 02b7 40       		.byte	64
 1551 02b8 08       		.byte	8
ARM GAS  C:\Users\SEBAST~3\AppData\Local\Temp\ccQGNYwU.s 			page 52


 1552 02b9 10       		.byte	16
 1553 02ba 09       		.byte	9
 1554 02bb 10       		.byte	16
 1555 02bc 0B       		.byte	11
 1556 02bd 20       		.byte	32
 1557 02be 0C       		.byte	12
 1558 02bf 02       		.byte	2
 1559 02c0 0E       		.byte	14
 1560 02c1 28       		.byte	40
 1561 02c2 0F       		.byte	15
 1562 02c3 02       		.byte	2
 1563 02c4 12       		.byte	18
 1564 02c5 08       		.byte	8
 1565 02c6 13       		.byte	19
 1566 02c7 04       		.byte	4
 1567 02c8 15       		.byte	21
 1568 02c9 20       		.byte	32
 1569 02ca 16       		.byte	22
 1570 02cb 80       		.byte	-128
 1571 02cc 17       		.byte	23
 1572 02cd 08       		.byte	8
 1573 02ce 18       		.byte	24
 1574 02cf 02       		.byte	2
 1575 02d0 1A       		.byte	26
 1576 02d1 80       		.byte	-128
 1577 02d2 1C       		.byte	28
 1578 02d3 44       		.byte	68
 1579 02d4 1D       		.byte	29
 1580 02d5 4A       		.byte	74
 1581 02d6 1F       		.byte	31
 1582 02d7 18       		.byte	24
 1583 02d8 27       		.byte	39
 1584 02d9 29       		.byte	41
 1585 02da 2C       		.byte	44
 1586 02db 02       		.byte	2
 1587 02dc 2F       		.byte	47
 1588 02dd 80       		.byte	-128
 1589 02de 37       		.byte	55
 1590 02df 09       		.byte	9
 1591 02e0 3F       		.byte	63
 1592 02e1 12       		.byte	18
 1593 02e2 40       		.byte	64
 1594 02e3 40       		.byte	64
 1595 02e4 43       		.byte	67
 1596 02e5 08       		.byte	8
 1597 02e6 45       		.byte	69
 1598 02e7 0A       		.byte	10
 1599 02e8 4A       		.byte	74
 1600 02e9 08       		.byte	8
 1601 02ea 4F       		.byte	79
 1602 02eb 12       		.byte	18
 1603 02ec 54       		.byte	84
 1604 02ed 82       		.byte	-126
 1605 02ee 56       		.byte	86
 1606 02ef AA       		.byte	-86
 1607 02f0 57       		.byte	87
 1608 02f1 80       		.byte	-128
ARM GAS  C:\Users\SEBAST~3\AppData\Local\Temp\ccQGNYwU.s 			page 53


 1609 02f2 58       		.byte	88
 1610 02f3 80       		.byte	-128
 1611 02f4 65       		.byte	101
 1612 02f5 C0       		.byte	-64
 1613 02f6 77       		.byte	119
 1614 02f7 40       		.byte	64
 1615 02f8 84       		.byte	-124
 1616 02f9 A0       		.byte	-96
 1617 02fa 87       		.byte	-121
 1618 02fb 80       		.byte	-128
 1619 02fc 90       		.byte	-112
 1620 02fd B0       		.byte	-80
 1621 02fe 91       		.byte	-111
 1622 02ff 20       		.byte	32
 1623 0300 93       		.byte	-109
 1624 0301 14       		.byte	20
 1625 0302 94       		.byte	-108
 1626 0303 04       		.byte	4
 1627 0304 96       		.byte	-106
 1628 0305 80       		.byte	-128
 1629 0306 9C       		.byte	-100
 1630 0307 30       		.byte	48
 1631 0308 9D       		.byte	-99
 1632 0309 80       		.byte	-128
 1633 030a 9E       		.byte	-98
 1634 030b 6A       		.byte	106
 1635 030c 9F       		.byte	-97
 1636 030d 29       		.byte	41
 1637 030e A0       		.byte	-96
 1638 030f 10       		.byte	16
 1639 0310 A2       		.byte	-94
 1640 0311 08       		.byte	8
 1641 0312 A4       		.byte	-92
 1642 0313 80       		.byte	-128
 1643 0314 A6       		.byte	-90
 1644 0315 24       		.byte	36
 1645 0316 B4       		.byte	-76
 1646 0317 02       		.byte	2
 1647 0318 B6       		.byte	-74
 1648 0319 20       		.byte	32
 1649 031a C0       		.byte	-64
 1650 031b FE       		.byte	-2
 1651 031c C2       		.byte	-62
 1652 031d F6       		.byte	-10
 1653 031e C4       		.byte	-60
 1654 031f 76       		.byte	118
 1655 0320 CA       		.byte	-54
 1656 0321 90       		.byte	-112
 1657 0322 CC       		.byte	-52
 1658 0323 C0       		.byte	-64
 1659 0324 CE       		.byte	-50
 1660 0325 A0       		.byte	-96
 1661 0326 D0       		.byte	-48
 1662 0327 C3       		.byte	-61
 1663 0328 D2       		.byte	-46
 1664 0329 24       		.byte	36
 1665 032a D6       		.byte	-42
ARM GAS  C:\Users\SEBAST~3\AppData\Local\Temp\ccQGNYwU.s 			page 54


 1666 032b 08       		.byte	8
 1667 032c E6       		.byte	-26
 1668 032d 02       		.byte	2
 1669 032e 02       		.byte	2
 1670 032f 08       		.byte	8
 1671 0330 03       		.byte	3
 1672 0331 04       		.byte	4
 1673 0332 04       		.byte	4
 1674 0333 04       		.byte	4
 1675 0334 08       		.byte	8
 1676 0335 01       		.byte	1
 1677 0336 0E       		.byte	14
 1678 0337 04       		.byte	4
 1679 0338 10       		.byte	16
 1680 0339 02       		.byte	2
 1681 033a 16       		.byte	22
 1682 033b 01       		.byte	1
 1683 033c 17       		.byte	23
 1684 033d 02       		.byte	2
 1685 033e 1E       		.byte	30
 1686 033f 02       		.byte	2
 1687 0340 22       		.byte	34
 1688 0341 01       		.byte	1
 1689 0342 23       		.byte	35
 1690 0343 01       		.byte	1
 1691 0344 30       		.byte	48
 1692 0345 01       		.byte	1
 1693 0346 31       		.byte	49
 1694 0347 02       		.byte	2
 1695 0348 32       		.byte	50
 1696 0349 08       		.byte	8
 1697 034a 34       		.byte	52
 1698 034b 04       		.byte	4
 1699 034c 35       		.byte	53
 1700 034d 04       		.byte	4
 1701 034e 36       		.byte	54
 1702 034f 02       		.byte	2
 1703 0350 37       		.byte	55
 1704 0351 01       		.byte	1
 1705 0352 3E       		.byte	62
 1706 0353 51       		.byte	81
 1707 0354 54       		.byte	84
 1708 0355 0F       		.byte	15
 1709 0356 58       		.byte	88
 1710 0357 04       		.byte	4
 1711 0358 59       		.byte	89
 1712 0359 04       		.byte	4
 1713 035a 5B       		.byte	91
 1714 035b 04       		.byte	4
 1715 035c 5C       		.byte	92
 1716 035d 33       		.byte	51
 1717 035e 5D       		.byte	93
 1718 035f 30       		.byte	48
 1719 0360 5F       		.byte	95
 1720 0361 05       		.byte	5
 1721 0362 84       		.byte	-124
 1722 0363 07       		.byte	7
ARM GAS  C:\Users\SEBAST~3\AppData\Local\Temp\ccQGNYwU.s 			page 55


 1723 0364 85       		.byte	-123
 1724 0365 77       		.byte	119
 1725 0366 88       		.byte	-120
 1726 0367 0C       		.byte	12
 1727 0368 89       		.byte	-119
 1728 0369 C0       		.byte	-64
 1729 036a 8A       		.byte	-118
 1730 036b 02       		.byte	2
 1731 036c 8B       		.byte	-117
 1732 036d 24       		.byte	36
 1733 036e 94       		.byte	-108
 1734 036f 0C       		.byte	12
 1735 0370 96       		.byte	-106
 1736 0371 01       		.byte	1
 1737 0372 97       		.byte	-105
 1738 0373 07       		.byte	7
 1739 0374 98       		.byte	-104
 1740 0375 08       		.byte	8
 1741 0376 99       		.byte	-103
 1742 0377 B7       		.byte	-73
 1743 0378 9A       		.byte	-102
 1744 0379 01       		.byte	1
 1745 037a 9B       		.byte	-101
 1746 037b 40       		.byte	64
 1747 037c 9F       		.byte	-97
 1748 037d 08       		.byte	8
 1749 037e A2       		.byte	-94
 1750 037f 0F       		.byte	15
 1751 0380 A4       		.byte	-92
 1752 0381 0B       		.byte	11
 1753 0382 A5       		.byte	-91
 1754 0383 01       		.byte	1
 1755 0384 A6       		.byte	-90
 1756 0385 04       		.byte	4
 1757 0386 A7       		.byte	-89
 1758 0387 F2       		.byte	-14
 1759 0388 A9       		.byte	-87
 1760 0389 C1       		.byte	-63
 1761 038a AB       		.byte	-85
 1762 038b 12       		.byte	18
 1763 038c AD       		.byte	-83
 1764 038d 84       		.byte	-124
 1765 038e AF       		.byte	-81
 1766 038f 10       		.byte	16
 1767 0390 B2       		.byte	-78
 1768 0391 0F       		.byte	15
 1769 0392 B3       		.byte	-77
 1770 0393 0F       		.byte	15
 1771 0394 B5       		.byte	-75
 1772 0395 F0       		.byte	-16
 1773 0396 D4       		.byte	-44
 1774 0397 0F       		.byte	15
 1775 0398 D8       		.byte	-40
 1776 0399 04       		.byte	4
 1777 039a D9       		.byte	-39
 1778 039b 04       		.byte	4
 1779 039c DB       		.byte	-37
ARM GAS  C:\Users\SEBAST~3\AppData\Local\Temp\ccQGNYwU.s 			page 56


 1780 039d 04       		.byte	4
 1781 039e DC       		.byte	-36
 1782 039f 33       		.byte	51
 1783 03a0 DD       		.byte	-35
 1784 03a1 30       		.byte	48
 1785 03a2 DF       		.byte	-33
 1786 03a3 01       		.byte	1
 1787 03a4 00       		.byte	0
 1788 03a5 14       		.byte	20
 1789 03a6 01       		.byte	1
 1790 03a7 08       		.byte	8
 1791 03a8 04       		.byte	4
 1792 03a9 08       		.byte	8
 1793 03aa 06       		.byte	6
 1794 03ab 82       		.byte	-126
 1795 03ac 07       		.byte	7
 1796 03ad 08       		.byte	8
 1797 03ae 08       		.byte	8
 1798 03af 10       		.byte	16
 1799 03b0 0A       		.byte	10
 1800 03b1 20       		.byte	32
 1801 03b2 0C       		.byte	12
 1802 03b3 80       		.byte	-128
 1803 03b4 0E       		.byte	14
 1804 03b5 80       		.byte	-128
 1805 03b6 0F       		.byte	15
 1806 03b7 10       		.byte	16
 1807 03b8 12       		.byte	18
 1808 03b9 60       		.byte	96
 1809 03ba 17       		.byte	23
 1810 03bb 01       		.byte	1
 1811 03bc 18       		.byte	24
 1812 03bd 30       		.byte	48
 1813 03be 1B       		.byte	27
 1814 03bf 08       		.byte	8
 1815 03c0 1C       		.byte	28
 1816 03c1 20       		.byte	32
 1817 03c2 1E       		.byte	30
 1818 03c3 46       		.byte	70
 1819 03c4 21       		.byte	33
 1820 03c5 10       		.byte	16
 1821 03c6 22       		.byte	34
 1822 03c7 18       		.byte	24
 1823 03c8 23       		.byte	35
 1824 03c9 14       		.byte	20
 1825 03ca 24       		.byte	36
 1826 03cb 88       		.byte	-120
 1827 03cc 26       		.byte	38
 1828 03cd 40       		.byte	64
 1829 03ce 28       		.byte	40
 1830 03cf 10       		.byte	16
 1831 03d0 2A       		.byte	42
 1832 03d1 40       		.byte	64
 1833 03d2 2B       		.byte	43
 1834 03d3 08       		.byte	8
 1835 03d4 2C       		.byte	44
 1836 03d5 80       		.byte	-128
ARM GAS  C:\Users\SEBAST~3\AppData\Local\Temp\ccQGNYwU.s 			page 57


 1837 03d6 32       		.byte	50
 1838 03d7 68       		.byte	104
 1839 03d8 36       		.byte	54
 1840 03d9 04       		.byte	4
 1841 03da 38       		.byte	56
 1842 03db 04       		.byte	4
 1843 03dc 39       		.byte	57
 1844 03dd 20       		.byte	32
 1845 03de 3E       		.byte	62
 1846 03df 02       		.byte	2
 1847 03e0 58       		.byte	88
 1848 03e1 02       		.byte	2
 1849 03e2 59       		.byte	89
 1850 03e3 08       		.byte	8
 1851 03e4 5A       		.byte	90
 1852 03e5 40       		.byte	64
 1853 03e6 5B       		.byte	91
 1854 03e7 20       		.byte	32
 1855 03e8 5C       		.byte	92
 1856 03e9 20       		.byte	32
 1857 03ea 5D       		.byte	93
 1858 03eb 80       		.byte	-128
 1859 03ec 5E       		.byte	94
 1860 03ed 06       		.byte	6
 1861 03ee 66       		.byte	102
 1862 03ef 28       		.byte	40
 1863 03f0 7C       		.byte	124
 1864 03f1 04       		.byte	4
 1865 03f2 9A       		.byte	-102
 1866 03f3 80       		.byte	-128
 1867 03f4 B2       		.byte	-78
 1868 03f5 80       		.byte	-128
 1869 03f6 C0       		.byte	-64
 1870 03f7 F6       		.byte	-10
 1871 03f8 C2       		.byte	-62
 1872 03f9 B6       		.byte	-74
 1873 03fa C4       		.byte	-60
 1874 03fb 1C       		.byte	28
 1875 03fc CA       		.byte	-54
 1876 03fd 8E       		.byte	-114
 1877 03fe CC       		.byte	-52
 1878 03ff 4E       		.byte	78
 1879 0400 CE       		.byte	-50
 1880 0401 86       		.byte	-122
 1881 0402 D6       		.byte	-42
 1882 0403 FF       		.byte	-1
 1883 0404 D8       		.byte	-40
 1884 0405 60       		.byte	96
 1885 0406 DE       		.byte	-34
 1886 0407 40       		.byte	64
 1887 0408 EC       		.byte	-20
 1888 0409 20       		.byte	32
 1889 040a EC       		.byte	-20
 1890 040b 10       		.byte	16
 1891 040c EA       		.byte	-22
 1892 040d 02       		.byte	2
 1893 040e EC       		.byte	-20
ARM GAS  C:\Users\SEBAST~3\AppData\Local\Temp\ccQGNYwU.s 			page 58


 1894 040f 04       		.byte	4
 1895 0410 EE       		.byte	-18
 1896 0411 0A       		.byte	10
 1897 0412 03       		.byte	3
 1898 0413 20       		.byte	32
 1899 0414 05       		.byte	5
 1900 0415 0C       		.byte	12
 1901 0416 07       		.byte	7
 1902 0417 03       		.byte	3
 1903 0418 08       		.byte	8
 1904 0419 04       		.byte	4
 1905 041a 0B       		.byte	11
 1906 041b 40       		.byte	64
 1907 041c 0F       		.byte	15
 1908 041d 10       		.byte	16
 1909 041e 15       		.byte	21
 1910 041f 0A       		.byte	10
 1911 0420 16       		.byte	22
 1912 0421 02       		.byte	2
 1913 0422 17       		.byte	23
 1914 0423 05       		.byte	5
 1915 0424 19       		.byte	25
 1916 0425 0F       		.byte	15
 1917 0426 1E       		.byte	30
 1918 0427 02       		.byte	2
 1919 0428 21       		.byte	33
 1920 0429 05       		.byte	5
 1921 042a 23       		.byte	35
 1922 042b 0A       		.byte	10
 1923 042c 25       		.byte	37
 1924 042d 07       		.byte	7
 1925 042e 26       		.byte	38
 1926 042f 04       		.byte	4
 1927 0430 29       		.byte	41
 1928 0431 03       		.byte	3
 1929 0432 2B       		.byte	43
 1930 0433 0C       		.byte	12
 1931 0434 2E       		.byte	46
 1932 0435 01       		.byte	1
 1933 0436 30       		.byte	48
 1934 0437 04       		.byte	4
 1935 0438 31       		.byte	49
 1936 0439 20       		.byte	32
 1937 043a 32       		.byte	50
 1938 043b 01       		.byte	1
 1939 043c 33       		.byte	51
 1940 043d 40       		.byte	64
 1941 043e 34       		.byte	52
 1942 043f 02       		.byte	2
 1943 0440 35       		.byte	53
 1944 0441 0F       		.byte	15
 1945 0442 37       		.byte	55
 1946 0443 10       		.byte	16
 1947 0444 3E       		.byte	62
 1948 0445 10       		.byte	16
 1949 0446 40       		.byte	64
 1950 0447 30       		.byte	48
ARM GAS  C:\Users\SEBAST~3\AppData\Local\Temp\ccQGNYwU.s 			page 59


 1951 0448 41       		.byte	65
 1952 0449 04       		.byte	4
 1953 044a 45       		.byte	69
 1954 044b D0       		.byte	-48
 1955 044c 46       		.byte	70
 1956 044d 10       		.byte	16
 1957 044e 47       		.byte	71
 1958 044f 20       		.byte	32
 1959 0450 48       		.byte	72
 1960 0451 2A       		.byte	42
 1961 0452 49       		.byte	73
 1962 0453 FF       		.byte	-1
 1963 0454 4A       		.byte	74
 1964 0455 FF       		.byte	-1
 1965 0456 4B       		.byte	75
 1966 0457 FF       		.byte	-1
 1967 0458 4D       		.byte	77
 1968 0459 A0       		.byte	-96
 1969 045a 4F       		.byte	79
 1970 045b 04       		.byte	4
 1971 045c 50       		.byte	80
 1972 045d 18       		.byte	24
 1973 045e 54       		.byte	84
 1974 045f 05       		.byte	5
 1975 0460 58       		.byte	88
 1976 0461 04       		.byte	4
 1977 0462 59       		.byte	89
 1978 0463 04       		.byte	4
 1979 0464 5A       		.byte	90
 1980 0465 04       		.byte	4
 1981 0466 5B       		.byte	91
 1982 0467 04       		.byte	4
 1983 0468 5C       		.byte	92
 1984 0469 34       		.byte	52
 1985 046a 5D       		.byte	93
 1986 046b 44       		.byte	68
 1987 046c 5F       		.byte	95
 1988 046d 01       		.byte	1
 1989 046e 60       		.byte	96
 1990 046f 40       		.byte	64
 1991 0470 62       		.byte	98
 1992 0471 C0       		.byte	-64
 1993 0472 64       		.byte	100
 1994 0473 40       		.byte	64
 1995 0474 65       		.byte	101
 1996 0475 40       		.byte	64
 1997 0476 66       		.byte	102
 1998 0477 C0       		.byte	-64
 1999 0478 68       		.byte	104
 2000 0479 C0       		.byte	-64
 2001 047a 6A       		.byte	106
 2002 047b C0       		.byte	-64
 2003 047c 6C       		.byte	108
 2004 047d C0       		.byte	-64
 2005 047e 6E       		.byte	110
 2006 047f C0       		.byte	-64
 2007 0480 80       		.byte	-128
ARM GAS  C:\Users\SEBAST~3\AppData\Local\Temp\ccQGNYwU.s 			page 60


 2008 0481 02       		.byte	2
 2009 0482 82       		.byte	-126
 2010 0483 01       		.byte	1
 2011 0484 83       		.byte	-125
 2012 0485 02       		.byte	2
 2013 0486 85       		.byte	-123
 2014 0487 01       		.byte	1
 2015 0488 87       		.byte	-121
 2016 0489 02       		.byte	2
 2017 048a 8B       		.byte	-117
 2018 048b 04       		.byte	4
 2019 048c 8C       		.byte	-116
 2020 048d 01       		.byte	1
 2021 048e 8E       		.byte	-114
 2022 048f 02       		.byte	2
 2023 0490 8F       		.byte	-113
 2024 0491 08       		.byte	8
 2025 0492 97       		.byte	-105
 2026 0493 04       		.byte	4
 2027 0494 9B       		.byte	-101
 2028 0495 01       		.byte	1
 2029 0496 A0       		.byte	-96
 2030 0497 01       		.byte	1
 2031 0498 A2       		.byte	-94
 2032 0499 02       		.byte	2
 2033 049a AC       		.byte	-84
 2034 049b 01       		.byte	1
 2035 049c AE       		.byte	-82
 2036 049d 02       		.byte	2
 2037 049e AF       		.byte	-81
 2038 049f 08       		.byte	8
 2039 04a0 B0       		.byte	-80
 2040 04a1 03       		.byte	3
 2041 04a2 B1       		.byte	-79
 2042 04a3 08       		.byte	8
 2043 04a4 B5       		.byte	-75
 2044 04a5 04       		.byte	4
 2045 04a6 B7       		.byte	-73
 2046 04a7 03       		.byte	3
 2047 04a8 BA       		.byte	-70
 2048 04a9 02       		.byte	2
 2049 04aa BF       		.byte	-65
 2050 04ab 40       		.byte	64
 2051 04ac D8       		.byte	-40
 2052 04ad 04       		.byte	4
 2053 04ae D9       		.byte	-39
 2054 04af 04       		.byte	4
 2055 04b0 DB       		.byte	-37
 2056 04b1 04       		.byte	4
 2057 04b2 DC       		.byte	-36
 2058 04b3 43       		.byte	67
 2059 04b4 DF       		.byte	-33
 2060 04b5 01       		.byte	1
 2061 04b6 00       		.byte	0
 2062 04b7 40       		.byte	64
 2063 04b8 01       		.byte	1
 2064 04b9 02       		.byte	2
ARM GAS  C:\Users\SEBAST~3\AppData\Local\Temp\ccQGNYwU.s 			page 61


 2065 04ba 05       		.byte	5
 2066 04bb 10       		.byte	16
 2067 04bc 0D       		.byte	13
 2068 04bd 08       		.byte	8
 2069 04be 0F       		.byte	15
 2070 04bf 02       		.byte	2
 2071 04c0 11       		.byte	17
 2072 04c1 81       		.byte	-127
 2073 04c2 12       		.byte	18
 2074 04c3 80       		.byte	-128
 2075 04c4 16       		.byte	22
 2076 04c5 10       		.byte	16
 2077 04c6 17       		.byte	23
 2078 04c7 40       		.byte	64
 2079 04c8 19       		.byte	25
 2080 04c9 02       		.byte	2
 2081 04ca 1D       		.byte	29
 2082 04cb 08       		.byte	8
 2083 04cc 1E       		.byte	30
 2084 04cd 48       		.byte	72
 2085 04ce 20       		.byte	32
 2086 04cf 02       		.byte	2
 2087 04d0 21       		.byte	33
 2088 04d1 21       		.byte	33
 2089 04d2 24       		.byte	36
 2090 04d3 40       		.byte	64
 2091 04d4 25       		.byte	37
 2092 04d5 40       		.byte	64
 2093 04d6 26       		.byte	38
 2094 04d7 30       		.byte	48
 2095 04d8 27       		.byte	39
 2096 04d9 20       		.byte	32
 2097 04da 29       		.byte	41
 2098 04db 80       		.byte	-128
 2099 04dc 2D       		.byte	45
 2100 04dd 02       		.byte	2
 2101 04de 2E       		.byte	46
 2102 04df 20       		.byte	32
 2103 04e0 2F       		.byte	47
 2104 04e1 10       		.byte	16
 2105 04e2 31       		.byte	49
 2106 04e3 28       		.byte	40
 2107 04e4 36       		.byte	54
 2108 04e5 20       		.byte	32
 2109 04e6 37       		.byte	55
 2110 04e7 08       		.byte	8
 2111 04e8 38       		.byte	56
 2112 04e9 88       		.byte	-120
 2113 04ea 39       		.byte	57
 2114 04eb 02       		.byte	2
 2115 04ec 3A       		.byte	58
 2116 04ed 10       		.byte	16
 2117 04ee 3C       		.byte	60
 2118 04ef 60       		.byte	96
 2119 04f0 3D       		.byte	61
 2120 04f1 01       		.byte	1
 2121 04f2 3F       		.byte	63
ARM GAS  C:\Users\SEBAST~3\AppData\Local\Temp\ccQGNYwU.s 			page 62


 2122 04f3 04       		.byte	4
 2123 04f4 45       		.byte	69
 2124 04f5 09       		.byte	9
 2125 04f6 4F       		.byte	79
 2126 04f7 01       		.byte	1
 2127 04f8 55       		.byte	85
 2128 04f9 01       		.byte	1
 2129 04fa 56       		.byte	86
 2130 04fb 10       		.byte	16
 2131 04fc 57       		.byte	87
 2132 04fd 11       		.byte	17
 2133 04fe 58       		.byte	88
 2134 04ff 40       		.byte	64
 2135 0500 5E       		.byte	94
 2136 0501 48       		.byte	72
 2137 0502 5F       		.byte	95
 2138 0503 01       		.byte	1
 2139 0504 90       		.byte	-112
 2140 0505 80       		.byte	-128
 2141 0506 91       		.byte	-111
 2142 0507 08       		.byte	8
 2143 0508 93       		.byte	-109
 2144 0509 24       		.byte	36
 2145 050a 99       		.byte	-103
 2146 050b 80       		.byte	-128
 2147 050c 9A       		.byte	-102
 2148 050d 20       		.byte	32
 2149 050e 9B       		.byte	-101
 2150 050f 48       		.byte	72
 2151 0510 9D       		.byte	-99
 2152 0511 02       		.byte	2
 2153 0512 9E       		.byte	-98
 2154 0513 40       		.byte	64
 2155 0514 9F       		.byte	-97
 2156 0515 20       		.byte	32
 2157 0516 A0       		.byte	-96
 2158 0517 10       		.byte	16
 2159 0518 A2       		.byte	-94
 2160 0519 80       		.byte	-128
 2161 051a A6       		.byte	-90
 2162 051b 30       		.byte	48
 2163 051c A9       		.byte	-87
 2164 051d 40       		.byte	64
 2165 051e C0       		.byte	-64
 2166 051f 49       		.byte	73
 2167 0520 C2       		.byte	-62
 2168 0521 A0       		.byte	-96
 2169 0522 C4       		.byte	-60
 2170 0523 A9       		.byte	-87
 2171 0524 CA       		.byte	-54
 2172 0525 E8       		.byte	-24
 2173 0526 CC       		.byte	-52
 2174 0527 66       		.byte	102
 2175 0528 CE       		.byte	-50
 2176 0529 FF       		.byte	-1
 2177 052a D0       		.byte	-48
 2178 052b C0       		.byte	-64
ARM GAS  C:\Users\SEBAST~3\AppData\Local\Temp\ccQGNYwU.s 			page 63


 2179 052c D6       		.byte	-42
 2180 052d D8       		.byte	-40
 2181 052e EA       		.byte	-22
 2182 052f 02       		.byte	2
 2183 0530 EE       		.byte	-18
 2184 0531 0A       		.byte	10
 2185 0532 05       		.byte	5
 2186 0533 01       		.byte	1
 2187 0534 0E       		.byte	14
 2188 0535 02       		.byte	2
 2189 0536 0F       		.byte	15
 2190 0537 04       		.byte	4
 2191 0538 13       		.byte	19
 2192 0539 02       		.byte	2
 2193 053a 16       		.byte	22
 2194 053b 01       		.byte	1
 2195 053c 1C       		.byte	28
 2196 053d 01       		.byte	1
 2197 053e 1E       		.byte	30
 2198 053f 02       		.byte	2
 2199 0540 22       		.byte	34
 2200 0541 04       		.byte	4
 2201 0542 26       		.byte	38
 2202 0543 08       		.byte	8
 2203 0544 2A       		.byte	42
 2204 0545 0C       		.byte	12
 2205 0546 2B       		.byte	43
 2206 0547 02       		.byte	2
 2207 0548 2F       		.byte	47
 2208 0549 01       		.byte	1
 2209 054a 30       		.byte	48
 2210 054b 04       		.byte	4
 2211 054c 31       		.byte	49
 2212 054d 04       		.byte	4
 2213 054e 33       		.byte	51
 2214 054f 02       		.byte	2
 2215 0550 34       		.byte	52
 2216 0551 08       		.byte	8
 2217 0552 36       		.byte	54
 2218 0553 03       		.byte	3
 2219 0554 37       		.byte	55
 2220 0555 01       		.byte	1
 2221 0556 3E       		.byte	62
 2222 0557 50       		.byte	80
 2223 0558 40       		.byte	64
 2224 0559 30       		.byte	48
 2225 055a 41       		.byte	65
 2226 055b 06       		.byte	6
 2227 055c 45       		.byte	69
 2228 055d D2       		.byte	-46
 2229 055e 46       		.byte	70
 2230 055f 01       		.byte	1
 2231 0560 47       		.byte	71
 2232 0561 02       		.byte	2
 2233 0562 48       		.byte	72
 2234 0563 17       		.byte	23
 2235 0564 49       		.byte	73
ARM GAS  C:\Users\SEBAST~3\AppData\Local\Temp\ccQGNYwU.s 			page 64


 2236 0565 FF       		.byte	-1
 2237 0566 4A       		.byte	74
 2238 0567 FF       		.byte	-1
 2239 0568 4B       		.byte	75
 2240 0569 FF       		.byte	-1
 2241 056a 4D       		.byte	77
 2242 056b A0       		.byte	-96
 2243 056c 4F       		.byte	79
 2244 056d 04       		.byte	4
 2245 056e 50       		.byte	80
 2246 056f 18       		.byte	24
 2247 0570 52       		.byte	82
 2248 0571 80       		.byte	-128
 2249 0572 54       		.byte	84
 2250 0573 05       		.byte	5
 2251 0574 58       		.byte	88
 2252 0575 04       		.byte	4
 2253 0576 59       		.byte	89
 2254 0577 04       		.byte	4
 2255 0578 5A       		.byte	90
 2256 0579 04       		.byte	4
 2257 057a 5B       		.byte	91
 2258 057b 04       		.byte	4
 2259 057c 5C       		.byte	92
 2260 057d 44       		.byte	68
 2261 057e 5D       		.byte	93
 2262 057f 44       		.byte	68
 2263 0580 5F       		.byte	95
 2264 0581 01       		.byte	1
 2265 0582 60       		.byte	96
 2266 0583 40       		.byte	64
 2267 0584 62       		.byte	98
 2268 0585 C0       		.byte	-64
 2269 0586 64       		.byte	100
 2270 0587 40       		.byte	64
 2271 0588 65       		.byte	101
 2272 0589 40       		.byte	64
 2273 058a 66       		.byte	102
 2274 058b C0       		.byte	-64
 2275 058c 68       		.byte	104
 2276 058d C0       		.byte	-64
 2277 058e 6A       		.byte	106
 2278 058f C0       		.byte	-64
 2279 0590 6C       		.byte	108
 2280 0591 C0       		.byte	-64
 2281 0592 6E       		.byte	110
 2282 0593 C0       		.byte	-64
 2283 0594 83       		.byte	-125
 2284 0595 01       		.byte	1
 2285 0596 87       		.byte	-121
 2286 0597 02       		.byte	2
 2287 0598 93       		.byte	-109
 2288 0599 01       		.byte	1
 2289 059a 96       		.byte	-106
 2290 059b 02       		.byte	2
 2291 059c 9A       		.byte	-102
 2292 059d 01       		.byte	1
ARM GAS  C:\Users\SEBAST~3\AppData\Local\Temp\ccQGNYwU.s 			page 65


 2293 059e 9F       		.byte	-97
 2294 059f 04       		.byte	4
 2295 05a0 A0       		.byte	-96
 2296 05a1 01       		.byte	1
 2297 05a2 B0       		.byte	-80
 2298 05a3 01       		.byte	1
 2299 05a4 B3       		.byte	-77
 2300 05a5 04       		.byte	4
 2301 05a6 B4       		.byte	-76
 2302 05a7 02       		.byte	2
 2303 05a8 B5       		.byte	-75
 2304 05a9 01       		.byte	1
 2305 05aa B7       		.byte	-73
 2306 05ab 02       		.byte	2
 2307 05ac BF       		.byte	-65
 2308 05ad 10       		.byte	16
 2309 05ae C0       		.byte	-64
 2310 05af 50       		.byte	80
 2311 05b0 C1       		.byte	-63
 2312 05b1 04       		.byte	4
 2313 05b2 C5       		.byte	-59
 2314 05b3 D1       		.byte	-47
 2315 05b4 C7       		.byte	-57
 2316 05b5 20       		.byte	32
 2317 05b6 C8       		.byte	-56
 2318 05b7 23       		.byte	35
 2319 05b8 C9       		.byte	-55
 2320 05b9 FF       		.byte	-1
 2321 05ba CA       		.byte	-54
 2322 05bb FF       		.byte	-1
 2323 05bc CB       		.byte	-53
 2324 05bd FF       		.byte	-1
 2325 05be CD       		.byte	-51
 2326 05bf A0       		.byte	-96
 2327 05c0 CF       		.byte	-49
 2328 05c1 04       		.byte	4
 2329 05c2 D0       		.byte	-48
 2330 05c3 18       		.byte	24
 2331 05c4 D2       		.byte	-46
 2332 05c5 80       		.byte	-128
 2333 05c6 D4       		.byte	-44
 2334 05c7 05       		.byte	5
 2335 05c8 D8       		.byte	-40
 2336 05c9 04       		.byte	4
 2337 05ca D9       		.byte	-39
 2338 05cb 04       		.byte	4
 2339 05cc DA       		.byte	-38
 2340 05cd 04       		.byte	4
 2341 05ce DB       		.byte	-37
 2342 05cf 04       		.byte	4
 2343 05d0 DC       		.byte	-36
 2344 05d1 44       		.byte	68
 2345 05d2 DD       		.byte	-35
 2346 05d3 44       		.byte	68
 2347 05d4 DF       		.byte	-33
 2348 05d5 01       		.byte	1
 2349 05d6 E0       		.byte	-32
ARM GAS  C:\Users\SEBAST~3\AppData\Local\Temp\ccQGNYwU.s 			page 66


 2350 05d7 40       		.byte	64
 2351 05d8 E2       		.byte	-30
 2352 05d9 C0       		.byte	-64
 2353 05da E4       		.byte	-28
 2354 05db 40       		.byte	64
 2355 05dc E5       		.byte	-27
 2356 05dd 40       		.byte	64
 2357 05de E6       		.byte	-26
 2358 05df C0       		.byte	-64
 2359 05e0 E8       		.byte	-24
 2360 05e1 C0       		.byte	-64
 2361 05e2 EA       		.byte	-22
 2362 05e3 C0       		.byte	-64
 2363 05e4 EC       		.byte	-20
 2364 05e5 C0       		.byte	-64
 2365 05e6 EE       		.byte	-18
 2366 05e7 C0       		.byte	-64
 2367 05e8 03       		.byte	3
 2368 05e9 02       		.byte	2
 2369 05ea 08       		.byte	8
 2370 05eb C0       		.byte	-64
 2371 05ec 0B       		.byte	11
 2372 05ed 10       		.byte	16
 2373 05ee 0F       		.byte	15
 2374 05ef 28       		.byte	40
 2375 05f0 10       		.byte	16
 2376 05f1 20       		.byte	32
 2377 05f2 12       		.byte	18
 2378 05f3 48       		.byte	72
 2379 05f4 17       		.byte	23
 2380 05f5 02       		.byte	2
 2381 05f6 1A       		.byte	26
 2382 05f7 06       		.byte	6
 2383 05f8 1B       		.byte	27
 2384 05f9 02       		.byte	2
 2385 05fa 1D       		.byte	29
 2386 05fb 10       		.byte	16
 2387 05fc 1E       		.byte	30
 2388 05fd 80       		.byte	-128
 2389 05fe 22       		.byte	34
 2390 05ff 42       		.byte	66
 2391 0600 23       		.byte	35
 2392 0601 10       		.byte	16
 2393 0602 25       		.byte	37
 2394 0603 08       		.byte	8
 2395 0604 26       		.byte	38
 2396 0605 08       		.byte	8
 2397 0606 27       		.byte	39
 2398 0607 0A       		.byte	10
 2399 0608 2A       		.byte	42
 2400 0609 40       		.byte	64
 2401 060a 2B       		.byte	43
 2402 060b 04       		.byte	4
 2403 060c 32       		.byte	50
 2404 060d 02       		.byte	2
 2405 060e 36       		.byte	54
 2406 060f 02       		.byte	2
ARM GAS  C:\Users\SEBAST~3\AppData\Local\Temp\ccQGNYwU.s 			page 67


 2407 0610 37       		.byte	55
 2408 0611 40       		.byte	64
 2409 0612 39       		.byte	57
 2410 0613 08       		.byte	8
 2411 0614 3A       		.byte	58
 2412 0615 80       		.byte	-128
 2413 0616 3F       		.byte	63
 2414 0617 0A       		.byte	10
 2415 0618 41       		.byte	65
 2416 0619 08       		.byte	8
 2417 061a 45       		.byte	69
 2418 061b 01       		.byte	1
 2419 061c 48       		.byte	72
 2420 061d 28       		.byte	40
 2421 061e 49       		.byte	73
 2422 061f 01       		.byte	1
 2423 0620 4E       		.byte	78
 2424 0621 02       		.byte	2
 2425 0622 4F       		.byte	79
 2426 0623 09       		.byte	9
 2427 0624 50       		.byte	80
 2428 0625 08       		.byte	8
 2429 0626 52       		.byte	82
 2430 0627 40       		.byte	64
 2431 0628 55       		.byte	85
 2432 0629 01       		.byte	1
 2433 062a 57       		.byte	87
 2434 062b 01       		.byte	1
 2435 062c 59       		.byte	89
 2436 062d 01       		.byte	1
 2437 062e 5A       		.byte	90
 2438 062f 84       		.byte	-124
 2439 0630 5E       		.byte	94
 2440 0631 80       		.byte	-128
 2441 0632 5F       		.byte	95
 2442 0633 09       		.byte	9
 2443 0634 72       		.byte	114
 2444 0635 80       		.byte	-128
 2445 0636 77       		.byte	119
 2446 0637 40       		.byte	64
 2447 0638 86       		.byte	-122
 2448 0639 01       		.byte	1
 2449 063a 8C       		.byte	-116
 2450 063b 80       		.byte	-128
 2451 063c 91       		.byte	-111
 2452 063d 08       		.byte	8
 2453 063e 9C       		.byte	-100
 2454 063f 40       		.byte	64
 2455 0640 9D       		.byte	-99
 2456 0641 10       		.byte	16
 2457 0642 9E       		.byte	-98
 2458 0643 40       		.byte	64
 2459 0644 A3       		.byte	-93
 2460 0645 10       		.byte	16
 2461 0646 B0       		.byte	-80
 2462 0647 01       		.byte	1
 2463 0648 B4       		.byte	-76
ARM GAS  C:\Users\SEBAST~3\AppData\Local\Temp\ccQGNYwU.s 			page 68


 2464 0649 04       		.byte	4
 2465 064a C0       		.byte	-64
 2466 064b 01       		.byte	1
 2467 064c C2       		.byte	-62
 2468 064d 65       		.byte	101
 2469 064e C4       		.byte	-60
 2470 064f 1E       		.byte	30
 2471 0650 CA       		.byte	-54
 2472 0651 0C       		.byte	12
 2473 0652 CC       		.byte	-52
 2474 0653 91       		.byte	-111
 2475 0654 CE       		.byte	-50
 2476 0655 CA       		.byte	-54
 2477 0656 D0       		.byte	-48
 2478 0657 82       		.byte	-126
 2479 0658 D2       		.byte	-46
 2480 0659 14       		.byte	20
 2481 065a D6       		.byte	-42
 2482 065b DB       		.byte	-37
 2483 065c E4       		.byte	-28
 2484 065d 02       		.byte	2
 2485 065e EC       		.byte	-20
 2486 065f 10       		.byte	16
 2487 0660 06       		.byte	6
 2488 0661 02       		.byte	2
 2489 0662 07       		.byte	7
 2490 0663 20       		.byte	32
 2491 0664 33       		.byte	51
 2492 0665 81       		.byte	-127
 2493 0666 36       		.byte	54
 2494 0667 40       		.byte	64
 2495 0668 C0       		.byte	-64
 2496 0669 A0       		.byte	-96
 2497 066a CC       		.byte	-52
 2498 066b 70       		.byte	112
 2499 066c 9A       		.byte	-102
 2500 066d 02       		.byte	2
 2501 066e 9F       		.byte	-97
 2502 066f 01       		.byte	1
 2503 0670 A6       		.byte	-90
 2504 0671 40       		.byte	64
 2505 0672 A7       		.byte	-89
 2506 0673 80       		.byte	-128
 2507 0674 B3       		.byte	-77
 2508 0675 20       		.byte	32
 2509 0676 9A       		.byte	-102
 2510 0677 02       		.byte	2
 2511 0678 9F       		.byte	-97
 2512 0679 01       		.byte	1
 2513 067a A6       		.byte	-90
 2514 067b 40       		.byte	64
 2515 067c A7       		.byte	-89
 2516 067d 80       		.byte	-128
 2517 067e 9A       		.byte	-102
 2518 067f 02       		.byte	2
 2519 0680 9F       		.byte	-97
 2520 0681 01       		.byte	1
ARM GAS  C:\Users\SEBAST~3\AppData\Local\Temp\ccQGNYwU.s 			page 69


 2521 0682 A6       		.byte	-90
 2522 0683 40       		.byte	64
 2523 0684 A7       		.byte	-89
 2524 0685 80       		.byte	-128
 2525 0686 7C       		.byte	124
 2526 0687 08       		.byte	8
 2527 0688 DE       		.byte	-34
 2528 0689 01       		.byte	1
 2529 068a 9C       		.byte	-100
 2530 068b 08       		.byte	8
 2531 068c 45       		.byte	69
 2532 068d 08       		.byte	8
 2533 068e 84       		.byte	-124
 2534 068f 10       		.byte	16
 2535 0690 9C       		.byte	-100
 2536 0691 08       		.byte	8
 2537 0692 D0       		.byte	-48
 2538 0693 01       		.byte	1
 2539 0694 08       		.byte	8
 2540 0695 08       		.byte	8
 2541 0696 0B       		.byte	11
 2542 0697 04       		.byte	4
 2543 0698 0F       		.byte	15
 2544 0699 40       		.byte	64
 2545 069a 89       		.byte	-119
 2546 069b 80       		.byte	-128
 2547 069c 9C       		.byte	-100
 2548 069d 10       		.byte	16
 2549 069e A5       		.byte	-91
 2550 069f 08       		.byte	8
 2551 06a0 B4       		.byte	-76
 2552 06a1 08       		.byte	8
 2553 06a2 C2       		.byte	-62
 2554 06a3 0E       		.byte	14
 2555 06a4 E2       		.byte	-30
 2556 06a5 04       		.byte	4
 2557 06a6 E8       		.byte	-24
 2558 06a7 02       		.byte	2
 2559 06a8 25       		.byte	37
 2560 06a9 10       		.byte	16
 2561 06aa AA       		.byte	-86
 2562 06ab 02       		.byte	2
 2563 06ac AE       		.byte	-82
 2564 06ad 40       		.byte	64
 2565 06ae AF       		.byte	-81
 2566 06af 81       		.byte	-127
 2567 06b0 C8       		.byte	-56
 2568 06b1 20       		.byte	32
 2569 06b2 EA       		.byte	-22
 2570 06b3 40       		.byte	64
 2571 06b4 EC       		.byte	-20
 2572 06b5 20       		.byte	32
 2573 06b6 EE       		.byte	-18
 2574 06b7 50       		.byte	80
 2575 06b8 B5       		.byte	-75
 2576 06b9 10       		.byte	16
 2577 06ba 09       		.byte	9
ARM GAS  C:\Users\SEBAST~3\AppData\Local\Temp\ccQGNYwU.s 			page 70


 2578 06bb 80       		.byte	-128
 2579 06bc 0C       		.byte	12
 2580 06bd 10       		.byte	16
 2581 06be 9C       		.byte	-100
 2582 06bf 10       		.byte	16
 2583 06c0 A5       		.byte	-91
 2584 06c1 88       		.byte	-120
 2585 06c2 AC       		.byte	-84
 2586 06c3 08       		.byte	8
 2587 06c4 AF       		.byte	-81
 2588 06c5 44       		.byte	68
 2589 06c6 C2       		.byte	-62
 2590 06c7 03       		.byte	3
 2591 06c8 0E       		.byte	14
 2592 06c9 02       		.byte	2
 2593 06ca 53       		.byte	83
 2594 06cb 10       		.byte	16
 2595 06cc 58       		.byte	88
 2596 06cd 40       		.byte	64
 2597 06ce 87       		.byte	-121
 2598 06cf 10       		.byte	16
 2599 06d0 8E       		.byte	-114
 2600 06d1 01       		.byte	1
 2601 06d2 98       		.byte	-104
 2602 06d3 40       		.byte	64
 2603 06d4 B0       		.byte	-80
 2604 06d5 40       		.byte	64
 2605 06d6 B5       		.byte	-75
 2606 06d7 88       		.byte	-120
 2607 06d8 C2       		.byte	-62
 2608 06d9 01       		.byte	1
 2609 06da D4       		.byte	-44
 2610 06db 05       		.byte	5
 2611 06dc E2       		.byte	-30
 2612 06dd 08       		.byte	8
 2613 06de E8       		.byte	-24
 2614 06df 01       		.byte	1
 2615 06e0 EA       		.byte	-22
 2616 06e1 08       		.byte	8
 2617 06e2 EC       		.byte	-20
 2618 06e3 08       		.byte	8
 2619 06e4 00       		.byte	0
 2620 06e5 18       		.byte	24
 2621 06e6 0C       		.byte	12
 2622 06e7 18       		.byte	24
 2623 06e8 0E       		.byte	14
 2624 06e9 08       		.byte	8
 2625 06ea 10       		.byte	16
 2626 06eb 18       		.byte	24
 2627 06ec 1C       		.byte	28
 2628 06ed 18       		.byte	24
 2629 06ee 00       		.byte	0
 2630 06ef 2A       		.byte	42
 2631              		.align	2
 2632              		.type	BS_IOPINS0_0_VAL.5056, %object
 2633              		.size	BS_IOPINS0_0_VAL.5056, 8
 2634              	BS_IOPINS0_0_VAL.5056:
ARM GAS  C:\Users\SEBAST~3\AppData\Local\Temp\ccQGNYwU.s 			page 71


 2635 06f0 00       		.byte	0
 2636 06f1 00       		.byte	0
 2637 06f2 00       		.byte	0
 2638 06f3 00       		.byte	0
 2639 06f4 00       		.byte	0
 2640 06f5 00       		.byte	0
 2641 06f6 01       		.byte	1
 2642 06f7 00       		.byte	0
 2643              		.align	2
 2644              		.type	BS_IOPINS0_8_VAL.5057, %object
 2645              		.size	BS_IOPINS0_8_VAL.5057, 10
 2646              	BS_IOPINS0_8_VAL.5057:
 2647 06f8 40       		.byte	64
 2648 06f9 00       		.byte	0
 2649 06fa 00       		.byte	0
 2650 06fb 00       		.byte	0
 2651 06fc 00       		.byte	0
 2652 06fd 00       		.byte	0
 2653 06fe 00       		.byte	0
 2654 06ff 00       		.byte	0
 2655 0700 C0       		.byte	-64
 2656 0701 00       		.byte	0
 2657 0702 0000     		.align	2
 2658              		.type	BS_IOPINS0_1_VAL.5058, %object
 2659              		.size	BS_IOPINS0_1_VAL.5058, 10
 2660              	BS_IOPINS0_1_VAL.5058:
 2661 0704 00       		.byte	0
 2662 0705 00       		.byte	0
 2663 0706 C0       		.byte	-64
 2664 0707 CF       		.byte	-49
 2665 0708 0B       		.byte	11
 2666 0709 00       		.byte	0
 2667 070a 00       		.byte	0
 2668 070b 00       		.byte	0
 2669 070c 00       		.byte	0
 2670 070d 00       		.byte	0
 2671 070e 0000     		.align	2
 2672              		.type	BS_IOPINS0_2_VAL.5059, %object
 2673              		.size	BS_IOPINS0_2_VAL.5059, 8
 2674              	BS_IOPINS0_2_VAL.5059:
 2675 0710 00       		.byte	0
 2676 0711 7F       		.byte	127
 2677 0712 7F       		.byte	127
 2678 0713 00       		.byte	0
 2679 0714 00       		.byte	0
 2680 0715 00       		.byte	0
 2681 0716 00       		.byte	0
 2682 0717 00       		.byte	0
 2683              		.align	2
 2684              		.type	BS_IOPINS0_4_VAL.5060, %object
 2685              		.size	BS_IOPINS0_4_VAL.5060, 8
 2686              	BS_IOPINS0_4_VAL.5060:
 2687 0718 0A       		.byte	10
 2688 0719 00       		.byte	0
 2689 071a 00       		.byte	0
 2690 071b 00       		.byte	0
 2691 071c 00       		.byte	0
ARM GAS  C:\Users\SEBAST~3\AppData\Local\Temp\ccQGNYwU.s 			page 72


 2692 071d 00       		.byte	0
 2693 071e 00       		.byte	0
 2694 071f 00       		.byte	0
 2695              		.align	2
 2696              		.type	BS_IOPINS0_5_VAL.5061, %object
 2697              		.size	BS_IOPINS0_5_VAL.5061, 8
 2698              	BS_IOPINS0_5_VAL.5061:
 2699 0720 80       		.byte	-128
 2700 0721 8A       		.byte	-118
 2701 0722 0A       		.byte	10
 2702 0723 00       		.byte	0
 2703 0724 0A       		.byte	10
 2704 0725 00       		.byte	0
 2705 0726 00       		.byte	0
 2706 0727 00       		.byte	0
 2707              		.text
 2708              	.Letext0:
 2709              		.file 2 "c:\\cypress\\psoc creator\\4.2\\psoc creator\\import\\gnu\\arm\\5.4.1\\lib\\gcc\\arm-none
 2710              		.file 3 "Generated_Source\\PSoC5\\cytypes.h"